

Microchip MPLAB XC8 Assembler V2.32 build 20210201212658 
                                                                                               Sat Mar 27 19:35:19 2021

Microchip MPLAB XC8 C Compiler v2.32 (Free license) build 20210201212658 Og1 
     1                           	processor	16F18446
     2                           	pagewidth 120
     3                           	opt	flic
     4                           	psect	nvCOMMON,global,class=COMMON,space=1,delta=1,noexec
     5                           	psect	stringtext1,global,class=STRCODE,delta=2,noexec
     6                           	psect	stringtext2,global,class=STRCODE,delta=2,noexec
     7                           	psect	stringtext3,global,class=STRCODE,delta=2,noexec
     8                           	psect	stringtext4,global,class=STRCODE,delta=2,noexec
     9                           	psect	cinit,global,class=CODE,merge=1,delta=2
    10                           	psect	bssCOMMON,global,class=COMMON,space=1,delta=1,noexec
    11                           	psect	cstackCOMMON,global,class=COMMON,space=1,delta=1,noexec
    12                           	psect	maintext,global,class=CODE,merge=1,split=1,delta=2
    13                           	psect	text1,local,class=CODE,merge=1,delta=2
    14                           	psect	text2,local,class=CODE,merge=1,delta=2
    15                           	psect	text3,local,class=CODE,merge=1,delta=2
    16                           	psect	text4,local,class=CODE,merge=1,delta=2
    17                           	psect	text5,local,class=CODE,merge=1,delta=2
    18                           	psect	text6,local,class=CODE,merge=1,delta=2
    19                           	psect	text7,local,class=CODE,merge=1,delta=2
    20                           	psect	text8,local,class=CODE,merge=1,delta=2
    21                           	psect	text9,local,class=CODE,merge=1,delta=2
    22                           	psect	text10,local,class=CODE,merge=1,delta=2
    23                           	psect	text11,local,class=CODE,merge=1,delta=2
    24                           	psect	config,global,abs,ovrld,class=CONFIG,space=4,delta=2,noexec
    25                           	dabs	1,0x7E,2
    26  0000                     
    27                           ; Version 2.30
    28                           ; Generated 15/09/2020 GMT
    29                           ; 
    30                           ; Copyright © 2020, Microchip Technology Inc. and its subsidiaries ("Microchip")
    31                           ; All rights reserved.
    32                           ; 
    33                           ; This software is developed by Microchip Technology Inc. and its subsidiaries ("Microch
      +                          ip").
    34                           ; 
    35                           ; Redistribution and use in source and binary forms, with or without modification, are
    36                           ; permitted provided that the following conditions are met:
    37                           ; 
    38                           ;     1. Redistributions of source code must retain the above copyright notice, this lis
      +                          t of
    39                           ;        conditions and the following disclaimer.
    40                           ; 
    41                           ;     2. Redistributions in binary form must reproduce the above copyright notice, this 
      +                          list
    42                           ;        of conditions and the following disclaimer in the documentation and/or other
    43                           ;        materials provided with the distribution. Publication is not required when
    44                           ;        this file is used in an embedded application.
    45                           ; 
    46                           ;     3. Microchip's name may not be used to endorse or promote products derived from th
      +                          is
    47                           ;        software without specific prior written permission.
    48                           ; 
    49                           ; THIS SOFTWARE IS PROVIDED BY MICROCHIP "AS IS" AND ANY EXPRESS OR IMPLIED WARRANTIES,
    50                           ; INCLUDING, BUT NOT LIMITED TO, THE IMPLIED WARRANTIES OF MERCHANTABILITY AND FITNESS F
      +                          OR
    51                           ; PURPOSE ARE DISCLAIMED.  IN NO EVENT SHALL MICROCHIP BE LIABLE FOR ANY DIRECT, INDIREC
      +                          T,
    52                           ; INCIDENTAL, SPECIAL, EXEMPLARY, OR CONSEQUENTIAL DAMAGES (INCLUDING BUT NOT LIMITED TO
    53                           ; PROCUREMENT OF SUBSTITUTE GOODS OR SERVICES; LOSS OF USE, DATA OR PROFITS; OR BUSINESS
    54                           ; INTERRUPTION) HOWSOEVER CAUSED AND ON ANY THEORY OF LIABILITY, WHETHER IN CONTRACT, ST
      +                          RICT
    55                           ; LIABILITY, OR TORT (INCLUDING NEGLIGENCE OR OTHERWISE) ARISING IN ANY WAY OUT OF THE U
      +                          SE OF
    56                           ; THIS SOFTWARE, EVEN IF ADVISED OF THE POSSIBILITY OF SUCH DAMAGE.
    57                           ; 
    58                           ; 
    59                           ; Code-generator required, PIC16F18446 Definitions
    60                           ; 
    61                           ; SFR Addresses
    62  0000                     	;# 
    63  0001                     	;# 
    64  0002                     	;# 
    65  0003                     	;# 
    66  0004                     	;# 
    67  0005                     	;# 
    68  0006                     	;# 
    69  0007                     	;# 
    70  0008                     	;# 
    71  0009                     	;# 
    72  000A                     	;# 
    73  000B                     	;# 
    74  000C                     	;# 
    75  000D                     	;# 
    76  000E                     	;# 
    77  0012                     	;# 
    78  0013                     	;# 
    79  0014                     	;# 
    80  0018                     	;# 
    81  0019                     	;# 
    82  001A                     	;# 
    83  008C                     	;# 
    84  008C                     	;# 
    85  008D                     	;# 
    86  008E                     	;# 
    87  008E                     	;# 
    88  008F                     	;# 
    89  0090                     	;# 
    90  0090                     	;# 
    91  0091                     	;# 
    92  0092                     	;# 
    93  0092                     	;# 
    94  0093                     	;# 
    95  0094                     	;# 
    96  0094                     	;# 
    97  0095                     	;# 
    98  0096                     	;# 
    99  0096                     	;# 
   100  0097                     	;# 
   101  0098                     	;# 
   102  0099                     	;# 
   103  009A                     	;# 
   104  009B                     	;# 
   105  009B                     	;# 
   106  009C                     	;# 
   107  009D                     	;# 
   108  009D                     	;# 
   109  009E                     	;# 
   110  009F                     	;# 
   111  010C                     	;# 
   112  010C                     	;# 
   113  010D                     	;# 
   114  010E                     	;# 
   115  010F                     	;# 
   116  010F                     	;# 
   117  0110                     	;# 
   118  0111                     	;# 
   119  0112                     	;# 
   120  0113                     	;# 
   121  0114                     	;# 
   122  0115                     	;# 
   123  0116                     	;# 
   124  0117                     	;# 
   125  0118                     	;# 
   126  0119                     	;# 
   127  0119                     	;# 
   128  0119                     	;# 
   129  011A                     	;# 
   130  011A                     	;# 
   131  011A                     	;# 
   132  011B                     	;# 
   133  011B                     	;# 
   134  011B                     	;# 
   135  011B                     	;# 
   136  011B                     	;# 
   137  011C                     	;# 
   138  011C                     	;# 
   139  011C                     	;# 
   140  011D                     	;# 
   141  011D                     	;# 
   142  011D                     	;# 
   143  011E                     	;# 
   144  011E                     	;# 
   145  011E                     	;# 
   146  011F                     	;# 
   147  011F                     	;# 
   148  011F                     	;# 
   149  011F                     	;# 
   150  011F                     	;# 
   151  018C                     	;# 
   152  018D                     	;# 
   153  018E                     	;# 
   154  018F                     	;# 
   155  0190                     	;# 
   156  0191                     	;# 
   157  0192                     	;# 
   158  0196                     	;# 
   159  0197                     	;# 
   160  0198                     	;# 
   161  0199                     	;# 
   162  019A                     	;# 
   163  019B                     	;# 
   164  019C                     	;# 
   165  020C                     	;# 
   166  020D                     	;# 
   167  020E                     	;# 
   168  020E                     	;# 
   169  020F                     	;# 
   170  020F                     	;# 
   171  0210                     	;# 
   172  0210                     	;# 
   173  0211                     	;# 
   174  0211                     	;# 
   175  0212                     	;# 
   176  0213                     	;# 
   177  0214                     	;# 
   178  0214                     	;# 
   179  0215                     	;# 
   180  0215                     	;# 
   181  0216                     	;# 
   182  0216                     	;# 
   183  0217                     	;# 
   184  0217                     	;# 
   185  0218                     	;# 
   186  0219                     	;# 
   187  021A                     	;# 
   188  021A                     	;# 
   189  021B                     	;# 
   190  021B                     	;# 
   191  021C                     	;# 
   192  021C                     	;# 
   193  021D                     	;# 
   194  021D                     	;# 
   195  021E                     	;# 
   196  021F                     	;# 
   197  028C                     	;# 
   198  028C                     	;# 
   199  028D                     	;# 
   200  028D                     	;# 
   201  028E                     	;# 
   202  028F                     	;# 
   203  0290                     	;# 
   204  0291                     	;# 
   205  0292                     	;# 
   206  0292                     	;# 
   207  0293                     	;# 
   208  0293                     	;# 
   209  0294                     	;# 
   210  0295                     	;# 
   211  0296                     	;# 
   212  0297                     	;# 
   213  0298                     	;# 
   214  0298                     	;# 
   215  0299                     	;# 
   216  0299                     	;# 
   217  029A                     	;# 
   218  029B                     	;# 
   219  029C                     	;# 
   220  029D                     	;# 
   221  029F                     	;# 
   222  030C                     	;# 
   223  030C                     	;# 
   224  030D                     	;# 
   225  030E                     	;# 
   226  030F                     	;# 
   227  0310                     	;# 
   228  0310                     	;# 
   229  0311                     	;# 
   230  0312                     	;# 
   231  0313                     	;# 
   232  0314                     	;# 
   233  0314                     	;# 
   234  0315                     	;# 
   235  0316                     	;# 
   236  0317                     	;# 
   237  0318                     	;# 
   238  0318                     	;# 
   239  0319                     	;# 
   240  031A                     	;# 
   241  031B                     	;# 
   242  038C                     	;# 
   243  038C                     	;# 
   244  038D                     	;# 
   245  038E                     	;# 
   246  0390                     	;# 
   247  0390                     	;# 
   248  0391                     	;# 
   249  0392                     	;# 
   250  048C                     	;# 
   251  048C                     	;# 
   252  048D                     	;# 
   253  048E                     	;# 
   254  048F                     	;# 
   255  048F                     	;# 
   256  0490                     	;# 
   257  0491                     	;# 
   258  0492                     	;# 
   259  0492                     	;# 
   260  0493                     	;# 
   261  0494                     	;# 
   262  0495                     	;# 
   263  0495                     	;# 
   264  0496                     	;# 
   265  0497                     	;# 
   266  0498                     	;# 
   267  0499                     	;# 
   268  049A                     	;# 
   269  049B                     	;# 
   270  049C                     	;# 
   271  049D                     	;# 
   272  058C                     	;# 
   273  058C                     	;# 
   274  058D                     	;# 
   275  058E                     	;# 
   276  058F                     	;# 
   277  058F                     	;# 
   278  0590                     	;# 
   279  0591                     	;# 
   280  0592                     	;# 
   281  0593                     	;# 
   282  059C                     	;# 
   283  059C                     	;# 
   284  059D                     	;# 
   285  059D                     	;# 
   286  059E                     	;# 
   287  059F                     	;# 
   288  060C                     	;# 
   289  060C                     	;# 
   290  060D                     	;# 
   291  060D                     	;# 
   292  060E                     	;# 
   293  060F                     	;# 
   294  0610                     	;# 
   295  0611                     	;# 
   296  0612                     	;# 
   297  0613                     	;# 
   298  0614                     	;# 
   299  0616                     	;# 
   300  0616                     	;# 
   301  0617                     	;# 
   302  0617                     	;# 
   303  0618                     	;# 
   304  0619                     	;# 
   305  061A                     	;# 
   306  061B                     	;# 
   307  061C                     	;# 
   308  061D                     	;# 
   309  061E                     	;# 
   310  070C                     	;# 
   311  070D                     	;# 
   312  070E                     	;# 
   313  070F                     	;# 
   314  0710                     	;# 
   315  0711                     	;# 
   316  0712                     	;# 
   317  0713                     	;# 
   318  0714                     	;# 
   319  0716                     	;# 
   320  0717                     	;# 
   321  0718                     	;# 
   322  0719                     	;# 
   323  071A                     	;# 
   324  071B                     	;# 
   325  071C                     	;# 
   326  071D                     	;# 
   327  071E                     	;# 
   328  0796                     	;# 
   329  0797                     	;# 
   330  0798                     	;# 
   331  0799                     	;# 
   332  079A                     	;# 
   333  079B                     	;# 
   334  079C                     	;# 
   335  079D                     	;# 
   336  080C                     	;# 
   337  080D                     	;# 
   338  080E                     	;# 
   339  080F                     	;# 
   340  0810                     	;# 
   341  0811                     	;# 
   342  0812                     	;# 
   343  0813                     	;# 
   344  0814                     	;# 
   345  081A                     	;# 
   346  081A                     	;# 
   347  081B                     	;# 
   348  081C                     	;# 
   349  081C                     	;# 
   350  081D                     	;# 
   351  081E                     	;# 
   352  081F                     	;# 
   353  088C                     	;# 
   354  088D                     	;# 
   355  088E                     	;# 
   356  088F                     	;# 
   357  0890                     	;# 
   358  0891                     	;# 
   359  0892                     	;# 
   360  0893                     	;# 
   361  0895                     	;# 
   362  0896                     	;# 
   363  0897                     	;# 
   364  0898                     	;# 
   365  0899                     	;# 
   366  089A                     	;# 
   367  089B                     	;# 
   368  090C                     	;# 
   369  090E                     	;# 
   370  090F                     	;# 
   371  091F                     	;# 
   372  098F                     	;# 
   373  098F                     	;# 
   374  0990                     	;# 
   375  0991                     	;# 
   376  0992                     	;# 
   377  0993                     	;# 
   378  0994                     	;# 
   379  0995                     	;# 
   380  0996                     	;# 
   381  0997                     	;# 
   382  1E0F                     	;# 
   383  1E10                     	;# 
   384  1E11                     	;# 
   385  1E12                     	;# 
   386  1E13                     	;# 
   387  1E14                     	;# 
   388  1E15                     	;# 
   389  1E16                     	;# 
   390  1E17                     	;# 
   391  1E18                     	;# 
   392  1E19                     	;# 
   393  1E1A                     	;# 
   394  1E1B                     	;# 
   395  1E1C                     	;# 
   396  1E1D                     	;# 
   397  1E1E                     	;# 
   398  1E1F                     	;# 
   399  1E20                     	;# 
   400  1E21                     	;# 
   401  1E22                     	;# 
   402  1E23                     	;# 
   403  1E24                     	;# 
   404  1E25                     	;# 
   405  1E26                     	;# 
   406  1E27                     	;# 
   407  1E28                     	;# 
   408  1E29                     	;# 
   409  1E2A                     	;# 
   410  1E2B                     	;# 
   411  1E2C                     	;# 
   412  1E2D                     	;# 
   413  1E2E                     	;# 
   414  1E2F                     	;# 
   415  1E30                     	;# 
   416  1E31                     	;# 
   417  1E32                     	;# 
   418  1E33                     	;# 
   419  1E34                     	;# 
   420  1E35                     	;# 
   421  1E36                     	;# 
   422  1E37                     	;# 
   423  1E8F                     	;# 
   424  1E90                     	;# 
   425  1E91                     	;# 
   426  1E92                     	;# 
   427  1E93                     	;# 
   428  1E94                     	;# 
   429  1E95                     	;# 
   430  1E96                     	;# 
   431  1E97                     	;# 
   432  1E9C                     	;# 
   433  1E9D                     	;# 
   434  1E9E                     	;# 
   435  1EA1                     	;# 
   436  1EA2                     	;# 
   437  1EA3                     	;# 
   438  1EA4                     	;# 
   439  1EA9                     	;# 
   440  1EAA                     	;# 
   441  1EB1                     	;# 
   442  1EB2                     	;# 
   443  1EB8                     	;# 
   444  1EB9                     	;# 
   445  1EBA                     	;# 
   446  1EBB                     	;# 
   447  1EBC                     	;# 
   448  1EBD                     	;# 
   449  1EBE                     	;# 
   450  1EC3                     	;# 
   451  1EC5                     	;# 
   452  1EC6                     	;# 
   453  1EC7                     	;# 
   454  1EC8                     	;# 
   455  1EC9                     	;# 
   456  1ECA                     	;# 
   457  1ECB                     	;# 
   458  1ECB                     	;# 
   459  1ECB                     	;# 
   460  1ECC                     	;# 
   461  1ECC                     	;# 
   462  1ECC                     	;# 
   463  1F10                     	;# 
   464  1F11                     	;# 
   465  1F12                     	;# 
   466  1F14                     	;# 
   467  1F15                     	;# 
   468  1F1C                     	;# 
   469  1F1D                     	;# 
   470  1F1E                     	;# 
   471  1F1F                     	;# 
   472  1F20                     	;# 
   473  1F21                     	;# 
   474  1F22                     	;# 
   475  1F23                     	;# 
   476  1F24                     	;# 
   477  1F25                     	;# 
   478  1F26                     	;# 
   479  1F27                     	;# 
   480  1F38                     	;# 
   481  1F39                     	;# 
   482  1F3A                     	;# 
   483  1F3B                     	;# 
   484  1F3C                     	;# 
   485  1F3D                     	;# 
   486  1F3E                     	;# 
   487  1F3F                     	;# 
   488  1F43                     	;# 
   489  1F44                     	;# 
   490  1F45                     	;# 
   491  1F46                     	;# 
   492  1F47                     	;# 
   493  1F48                     	;# 
   494  1F49                     	;# 
   495  1F4A                     	;# 
   496  1F4E                     	;# 
   497  1F4F                     	;# 
   498  1F50                     	;# 
   499  1F51                     	;# 
   500  1F52                     	;# 
   501  1F53                     	;# 
   502  1F54                     	;# 
   503  1F55                     	;# 
   504  1FE4                     	;# 
   505  1FE5                     	;# 
   506  1FE6                     	;# 
   507  1FE7                     	;# 
   508  1FE8                     	;# 
   509  1FE8                     	;# 
   510  1FE9                     	;# 
   511  1FEA                     	;# 
   512  1FEB                     	;# 
   513  1FED                     	;# 
   514  1FEE                     	;# 
   515  1FEF                     	;# 
   516  0000                     	;# 
   517  0001                     	;# 
   518  0002                     	;# 
   519  0003                     	;# 
   520  0004                     	;# 
   521  0005                     	;# 
   522  0006                     	;# 
   523  0007                     	;# 
   524  0008                     	;# 
   525  0009                     	;# 
   526  000A                     	;# 
   527  000B                     	;# 
   528  000C                     	;# 
   529  000D                     	;# 
   530  000E                     	;# 
   531  0012                     	;# 
   532  0013                     	;# 
   533  0014                     	;# 
   534  0018                     	;# 
   535  0019                     	;# 
   536  001A                     	;# 
   537  008C                     	;# 
   538  008C                     	;# 
   539  008D                     	;# 
   540  008E                     	;# 
   541  008E                     	;# 
   542  008F                     	;# 
   543  0090                     	;# 
   544  0090                     	;# 
   545  0091                     	;# 
   546  0092                     	;# 
   547  0092                     	;# 
   548  0093                     	;# 
   549  0094                     	;# 
   550  0094                     	;# 
   551  0095                     	;# 
   552  0096                     	;# 
   553  0096                     	;# 
   554  0097                     	;# 
   555  0098                     	;# 
   556  0099                     	;# 
   557  009A                     	;# 
   558  009B                     	;# 
   559  009B                     	;# 
   560  009C                     	;# 
   561  009D                     	;# 
   562  009D                     	;# 
   563  009E                     	;# 
   564  009F                     	;# 
   565  010C                     	;# 
   566  010C                     	;# 
   567  010D                     	;# 
   568  010E                     	;# 
   569  010F                     	;# 
   570  010F                     	;# 
   571  0110                     	;# 
   572  0111                     	;# 
   573  0112                     	;# 
   574  0113                     	;# 
   575  0114                     	;# 
   576  0115                     	;# 
   577  0116                     	;# 
   578  0117                     	;# 
   579  0118                     	;# 
   580  0119                     	;# 
   581  0119                     	;# 
   582  0119                     	;# 
   583  011A                     	;# 
   584  011A                     	;# 
   585  011A                     	;# 
   586  011B                     	;# 
   587  011B                     	;# 
   588  011B                     	;# 
   589  011B                     	;# 
   590  011B                     	;# 
   591  011C                     	;# 
   592  011C                     	;# 
   593  011C                     	;# 
   594  011D                     	;# 
   595  011D                     	;# 
   596  011D                     	;# 
   597  011E                     	;# 
   598  011E                     	;# 
   599  011E                     	;# 
   600  011F                     	;# 
   601  011F                     	;# 
   602  011F                     	;# 
   603  011F                     	;# 
   604  011F                     	;# 
   605  018C                     	;# 
   606  018D                     	;# 
   607  018E                     	;# 
   608  018F                     	;# 
   609  0190                     	;# 
   610  0191                     	;# 
   611  0192                     	;# 
   612  0196                     	;# 
   613  0197                     	;# 
   614  0198                     	;# 
   615  0199                     	;# 
   616  019A                     	;# 
   617  019B                     	;# 
   618  019C                     	;# 
   619  020C                     	;# 
   620  020D                     	;# 
   621  020E                     	;# 
   622  020E                     	;# 
   623  020F                     	;# 
   624  020F                     	;# 
   625  0210                     	;# 
   626  0210                     	;# 
   627  0211                     	;# 
   628  0211                     	;# 
   629  0212                     	;# 
   630  0213                     	;# 
   631  0214                     	;# 
   632  0214                     	;# 
   633  0215                     	;# 
   634  0215                     	;# 
   635  0216                     	;# 
   636  0216                     	;# 
   637  0217                     	;# 
   638  0217                     	;# 
   639  0218                     	;# 
   640  0219                     	;# 
   641  021A                     	;# 
   642  021A                     	;# 
   643  021B                     	;# 
   644  021B                     	;# 
   645  021C                     	;# 
   646  021C                     	;# 
   647  021D                     	;# 
   648  021D                     	;# 
   649  021E                     	;# 
   650  021F                     	;# 
   651  028C                     	;# 
   652  028C                     	;# 
   653  028D                     	;# 
   654  028D                     	;# 
   655  028E                     	;# 
   656  028F                     	;# 
   657  0290                     	;# 
   658  0291                     	;# 
   659  0292                     	;# 
   660  0292                     	;# 
   661  0293                     	;# 
   662  0293                     	;# 
   663  0294                     	;# 
   664  0295                     	;# 
   665  0296                     	;# 
   666  0297                     	;# 
   667  0298                     	;# 
   668  0298                     	;# 
   669  0299                     	;# 
   670  0299                     	;# 
   671  029A                     	;# 
   672  029B                     	;# 
   673  029C                     	;# 
   674  029D                     	;# 
   675  029F                     	;# 
   676  030C                     	;# 
   677  030C                     	;# 
   678  030D                     	;# 
   679  030E                     	;# 
   680  030F                     	;# 
   681  0310                     	;# 
   682  0310                     	;# 
   683  0311                     	;# 
   684  0312                     	;# 
   685  0313                     	;# 
   686  0314                     	;# 
   687  0314                     	;# 
   688  0315                     	;# 
   689  0316                     	;# 
   690  0317                     	;# 
   691  0318                     	;# 
   692  0318                     	;# 
   693  0319                     	;# 
   694  031A                     	;# 
   695  031B                     	;# 
   696  038C                     	;# 
   697  038C                     	;# 
   698  038D                     	;# 
   699  038E                     	;# 
   700  0390                     	;# 
   701  0390                     	;# 
   702  0391                     	;# 
   703  0392                     	;# 
   704  048C                     	;# 
   705  048C                     	;# 
   706  048D                     	;# 
   707  048E                     	;# 
   708  048F                     	;# 
   709  048F                     	;# 
   710  0490                     	;# 
   711  0491                     	;# 
   712  0492                     	;# 
   713  0492                     	;# 
   714  0493                     	;# 
   715  0494                     	;# 
   716  0495                     	;# 
   717  0495                     	;# 
   718  0496                     	;# 
   719  0497                     	;# 
   720  0498                     	;# 
   721  0499                     	;# 
   722  049A                     	;# 
   723  049B                     	;# 
   724  049C                     	;# 
   725  049D                     	;# 
   726  058C                     	;# 
   727  058C                     	;# 
   728  058D                     	;# 
   729  058E                     	;# 
   730  058F                     	;# 
   731  058F                     	;# 
   732  0590                     	;# 
   733  0591                     	;# 
   734  0592                     	;# 
   735  0593                     	;# 
   736  059C                     	;# 
   737  059C                     	;# 
   738  059D                     	;# 
   739  059D                     	;# 
   740  059E                     	;# 
   741  059F                     	;# 
   742  060C                     	;# 
   743  060C                     	;# 
   744  060D                     	;# 
   745  060D                     	;# 
   746  060E                     	;# 
   747  060F                     	;# 
   748  0610                     	;# 
   749  0611                     	;# 
   750  0612                     	;# 
   751  0613                     	;# 
   752  0614                     	;# 
   753  0616                     	;# 
   754  0616                     	;# 
   755  0617                     	;# 
   756  0617                     	;# 
   757  0618                     	;# 
   758  0619                     	;# 
   759  061A                     	;# 
   760  061B                     	;# 
   761  061C                     	;# 
   762  061D                     	;# 
   763  061E                     	;# 
   764  070C                     	;# 
   765  070D                     	;# 
   766  070E                     	;# 
   767  070F                     	;# 
   768  0710                     	;# 
   769  0711                     	;# 
   770  0712                     	;# 
   771  0713                     	;# 
   772  0714                     	;# 
   773  0716                     	;# 
   774  0717                     	;# 
   775  0718                     	;# 
   776  0719                     	;# 
   777  071A                     	;# 
   778  071B                     	;# 
   779  071C                     	;# 
   780  071D                     	;# 
   781  071E                     	;# 
   782  0796                     	;# 
   783  0797                     	;# 
   784  0798                     	;# 
   785  0799                     	;# 
   786  079A                     	;# 
   787  079B                     	;# 
   788  079C                     	;# 
   789  079D                     	;# 
   790  080C                     	;# 
   791  080D                     	;# 
   792  080E                     	;# 
   793  080F                     	;# 
   794  0810                     	;# 
   795  0811                     	;# 
   796  0812                     	;# 
   797  0813                     	;# 
   798  0814                     	;# 
   799  081A                     	;# 
   800  081A                     	;# 
   801  081B                     	;# 
   802  081C                     	;# 
   803  081C                     	;# 
   804  081D                     	;# 
   805  081E                     	;# 
   806  081F                     	;# 
   807  088C                     	;# 
   808  088D                     	;# 
   809  088E                     	;# 
   810  088F                     	;# 
   811  0890                     	;# 
   812  0891                     	;# 
   813  0892                     	;# 
   814  0893                     	;# 
   815  0895                     	;# 
   816  0896                     	;# 
   817  0897                     	;# 
   818  0898                     	;# 
   819  0899                     	;# 
   820  089A                     	;# 
   821  089B                     	;# 
   822  090C                     	;# 
   823  090E                     	;# 
   824  090F                     	;# 
   825  091F                     	;# 
   826  098F                     	;# 
   827  098F                     	;# 
   828  0990                     	;# 
   829  0991                     	;# 
   830  0992                     	;# 
   831  0993                     	;# 
   832  0994                     	;# 
   833  0995                     	;# 
   834  0996                     	;# 
   835  0997                     	;# 
   836  1E0F                     	;# 
   837  1E10                     	;# 
   838  1E11                     	;# 
   839  1E12                     	;# 
   840  1E13                     	;# 
   841  1E14                     	;# 
   842  1E15                     	;# 
   843  1E16                     	;# 
   844  1E17                     	;# 
   845  1E18                     	;# 
   846  1E19                     	;# 
   847  1E1A                     	;# 
   848  1E1B                     	;# 
   849  1E1C                     	;# 
   850  1E1D                     	;# 
   851  1E1E                     	;# 
   852  1E1F                     	;# 
   853  1E20                     	;# 
   854  1E21                     	;# 
   855  1E22                     	;# 
   856  1E23                     	;# 
   857  1E24                     	;# 
   858  1E25                     	;# 
   859  1E26                     	;# 
   860  1E27                     	;# 
   861  1E28                     	;# 
   862  1E29                     	;# 
   863  1E2A                     	;# 
   864  1E2B                     	;# 
   865  1E2C                     	;# 
   866  1E2D                     	;# 
   867  1E2E                     	;# 
   868  1E2F                     	;# 
   869  1E30                     	;# 
   870  1E31                     	;# 
   871  1E32                     	;# 
   872  1E33                     	;# 
   873  1E34                     	;# 
   874  1E35                     	;# 
   875  1E36                     	;# 
   876  1E37                     	;# 
   877  1E8F                     	;# 
   878  1E90                     	;# 
   879  1E91                     	;# 
   880  1E92                     	;# 
   881  1E93                     	;# 
   882  1E94                     	;# 
   883  1E95                     	;# 
   884  1E96                     	;# 
   885  1E97                     	;# 
   886  1E9C                     	;# 
   887  1E9D                     	;# 
   888  1E9E                     	;# 
   889  1EA1                     	;# 
   890  1EA2                     	;# 
   891  1EA3                     	;# 
   892  1EA4                     	;# 
   893  1EA9                     	;# 
   894  1EAA                     	;# 
   895  1EB1                     	;# 
   896  1EB2                     	;# 
   897  1EB8                     	;# 
   898  1EB9                     	;# 
   899  1EBA                     	;# 
   900  1EBB                     	;# 
   901  1EBC                     	;# 
   902  1EBD                     	;# 
   903  1EBE                     	;# 
   904  1EC3                     	;# 
   905  1EC5                     	;# 
   906  1EC6                     	;# 
   907  1EC7                     	;# 
   908  1EC8                     	;# 
   909  1EC9                     	;# 
   910  1ECA                     	;# 
   911  1ECB                     	;# 
   912  1ECB                     	;# 
   913  1ECB                     	;# 
   914  1ECC                     	;# 
   915  1ECC                     	;# 
   916  1ECC                     	;# 
   917  1F10                     	;# 
   918  1F11                     	;# 
   919  1F12                     	;# 
   920  1F14                     	;# 
   921  1F15                     	;# 
   922  1F1C                     	;# 
   923  1F1D                     	;# 
   924  1F1E                     	;# 
   925  1F1F                     	;# 
   926  1F20                     	;# 
   927  1F21                     	;# 
   928  1F22                     	;# 
   929  1F23                     	;# 
   930  1F24                     	;# 
   931  1F25                     	;# 
   932  1F26                     	;# 
   933  1F27                     	;# 
   934  1F38                     	;# 
   935  1F39                     	;# 
   936  1F3A                     	;# 
   937  1F3B                     	;# 
   938  1F3C                     	;# 
   939  1F3D                     	;# 
   940  1F3E                     	;# 
   941  1F3F                     	;# 
   942  1F43                     	;# 
   943  1F44                     	;# 
   944  1F45                     	;# 
   945  1F46                     	;# 
   946  1F47                     	;# 
   947  1F48                     	;# 
   948  1F49                     	;# 
   949  1F4A                     	;# 
   950  1F4E                     	;# 
   951  1F4F                     	;# 
   952  1F50                     	;# 
   953  1F51                     	;# 
   954  1F52                     	;# 
   955  1F53                     	;# 
   956  1F54                     	;# 
   957  1F55                     	;# 
   958  1FE4                     	;# 
   959  1FE5                     	;# 
   960  1FE6                     	;# 
   961  1FE7                     	;# 
   962  1FE8                     	;# 
   963  1FE8                     	;# 
   964  1FE9                     	;# 
   965  1FEA                     	;# 
   966  1FEB                     	;# 
   967  1FED                     	;# 
   968  1FEE                     	;# 
   969  1FEF                     	;# 
   970  0000                     	;# 
   971  0001                     	;# 
   972  0002                     	;# 
   973  0003                     	;# 
   974  0004                     	;# 
   975  0005                     	;# 
   976  0006                     	;# 
   977  0007                     	;# 
   978  0008                     	;# 
   979  0009                     	;# 
   980  000A                     	;# 
   981  000B                     	;# 
   982  000C                     	;# 
   983  000D                     	;# 
   984  000E                     	;# 
   985  0012                     	;# 
   986  0013                     	;# 
   987  0014                     	;# 
   988  0018                     	;# 
   989  0019                     	;# 
   990  001A                     	;# 
   991  008C                     	;# 
   992  008C                     	;# 
   993  008D                     	;# 
   994  008E                     	;# 
   995  008E                     	;# 
   996  008F                     	;# 
   997  0090                     	;# 
   998  0090                     	;# 
   999  0091                     	;# 
  1000  0092                     	;# 
  1001  0092                     	;# 
  1002  0093                     	;# 
  1003  0094                     	;# 
  1004  0094                     	;# 
  1005  0095                     	;# 
  1006  0096                     	;# 
  1007  0096                     	;# 
  1008  0097                     	;# 
  1009  0098                     	;# 
  1010  0099                     	;# 
  1011  009A                     	;# 
  1012  009B                     	;# 
  1013  009B                     	;# 
  1014  009C                     	;# 
  1015  009D                     	;# 
  1016  009D                     	;# 
  1017  009E                     	;# 
  1018  009F                     	;# 
  1019  010C                     	;# 
  1020  010C                     	;# 
  1021  010D                     	;# 
  1022  010E                     	;# 
  1023  010F                     	;# 
  1024  010F                     	;# 
  1025  0110                     	;# 
  1026  0111                     	;# 
  1027  0112                     	;# 
  1028  0113                     	;# 
  1029  0114                     	;# 
  1030  0115                     	;# 
  1031  0116                     	;# 
  1032  0117                     	;# 
  1033  0118                     	;# 
  1034  0119                     	;# 
  1035  0119                     	;# 
  1036  0119                     	;# 
  1037  011A                     	;# 
  1038  011A                     	;# 
  1039  011A                     	;# 
  1040  011B                     	;# 
  1041  011B                     	;# 
  1042  011B                     	;# 
  1043  011B                     	;# 
  1044  011B                     	;# 
  1045  011C                     	;# 
  1046  011C                     	;# 
  1047  011C                     	;# 
  1048  011D                     	;# 
  1049  011D                     	;# 
  1050  011D                     	;# 
  1051  011E                     	;# 
  1052  011E                     	;# 
  1053  011E                     	;# 
  1054  011F                     	;# 
  1055  011F                     	;# 
  1056  011F                     	;# 
  1057  011F                     	;# 
  1058  011F                     	;# 
  1059  018C                     	;# 
  1060  018D                     	;# 
  1061  018E                     	;# 
  1062  018F                     	;# 
  1063  0190                     	;# 
  1064  0191                     	;# 
  1065  0192                     	;# 
  1066  0196                     	;# 
  1067  0197                     	;# 
  1068  0198                     	;# 
  1069  0199                     	;# 
  1070  019A                     	;# 
  1071  019B                     	;# 
  1072  019C                     	;# 
  1073  020C                     	;# 
  1074  020D                     	;# 
  1075  020E                     	;# 
  1076  020E                     	;# 
  1077  020F                     	;# 
  1078  020F                     	;# 
  1079  0210                     	;# 
  1080  0210                     	;# 
  1081  0211                     	;# 
  1082  0211                     	;# 
  1083  0212                     	;# 
  1084  0213                     	;# 
  1085  0214                     	;# 
  1086  0214                     	;# 
  1087  0215                     	;# 
  1088  0215                     	;# 
  1089  0216                     	;# 
  1090  0216                     	;# 
  1091  0217                     	;# 
  1092  0217                     	;# 
  1093  0218                     	;# 
  1094  0219                     	;# 
  1095  021A                     	;# 
  1096  021A                     	;# 
  1097  021B                     	;# 
  1098  021B                     	;# 
  1099  021C                     	;# 
  1100  021C                     	;# 
  1101  021D                     	;# 
  1102  021D                     	;# 
  1103  021E                     	;# 
  1104  021F                     	;# 
  1105  028C                     	;# 
  1106  028C                     	;# 
  1107  028D                     	;# 
  1108  028D                     	;# 
  1109  028E                     	;# 
  1110  028F                     	;# 
  1111  0290                     	;# 
  1112  0291                     	;# 
  1113  0292                     	;# 
  1114  0292                     	;# 
  1115  0293                     	;# 
  1116  0293                     	;# 
  1117  0294                     	;# 
  1118  0295                     	;# 
  1119  0296                     	;# 
  1120  0297                     	;# 
  1121  0298                     	;# 
  1122  0298                     	;# 
  1123  0299                     	;# 
  1124  0299                     	;# 
  1125  029A                     	;# 
  1126  029B                     	;# 
  1127  029C                     	;# 
  1128  029D                     	;# 
  1129  029F                     	;# 
  1130  030C                     	;# 
  1131  030C                     	;# 
  1132  030D                     	;# 
  1133  030E                     	;# 
  1134  030F                     	;# 
  1135  0310                     	;# 
  1136  0310                     	;# 
  1137  0311                     	;# 
  1138  0312                     	;# 
  1139  0313                     	;# 
  1140  0314                     	;# 
  1141  0314                     	;# 
  1142  0315                     	;# 
  1143  0316                     	;# 
  1144  0317                     	;# 
  1145  0318                     	;# 
  1146  0318                     	;# 
  1147  0319                     	;# 
  1148  031A                     	;# 
  1149  031B                     	;# 
  1150  038C                     	;# 
  1151  038C                     	;# 
  1152  038D                     	;# 
  1153  038E                     	;# 
  1154  0390                     	;# 
  1155  0390                     	;# 
  1156  0391                     	;# 
  1157  0392                     	;# 
  1158  048C                     	;# 
  1159  048C                     	;# 
  1160  048D                     	;# 
  1161  048E                     	;# 
  1162  048F                     	;# 
  1163  048F                     	;# 
  1164  0490                     	;# 
  1165  0491                     	;# 
  1166  0492                     	;# 
  1167  0492                     	;# 
  1168  0493                     	;# 
  1169  0494                     	;# 
  1170  0495                     	;# 
  1171  0495                     	;# 
  1172  0496                     	;# 
  1173  0497                     	;# 
  1174  0498                     	;# 
  1175  0499                     	;# 
  1176  049A                     	;# 
  1177  049B                     	;# 
  1178  049C                     	;# 
  1179  049D                     	;# 
  1180  058C                     	;# 
  1181  058C                     	;# 
  1182  058D                     	;# 
  1183  058E                     	;# 
  1184  058F                     	;# 
  1185  058F                     	;# 
  1186  0590                     	;# 
  1187  0591                     	;# 
  1188  0592                     	;# 
  1189  0593                     	;# 
  1190  059C                     	;# 
  1191  059C                     	;# 
  1192  059D                     	;# 
  1193  059D                     	;# 
  1194  059E                     	;# 
  1195  059F                     	;# 
  1196  060C                     	;# 
  1197  060C                     	;# 
  1198  060D                     	;# 
  1199  060D                     	;# 
  1200  060E                     	;# 
  1201  060F                     	;# 
  1202  0610                     	;# 
  1203  0611                     	;# 
  1204  0612                     	;# 
  1205  0613                     	;# 
  1206  0614                     	;# 
  1207  0616                     	;# 
  1208  0616                     	;# 
  1209  0617                     	;# 
  1210  0617                     	;# 
  1211  0618                     	;# 
  1212  0619                     	;# 
  1213  061A                     	;# 
  1214  061B                     	;# 
  1215  061C                     	;# 
  1216  061D                     	;# 
  1217  061E                     	;# 
  1218  070C                     	;# 
  1219  070D                     	;# 
  1220  070E                     	;# 
  1221  070F                     	;# 
  1222  0710                     	;# 
  1223  0711                     	;# 
  1224  0712                     	;# 
  1225  0713                     	;# 
  1226  0714                     	;# 
  1227  0716                     	;# 
  1228  0717                     	;# 
  1229  0718                     	;# 
  1230  0719                     	;# 
  1231  071A                     	;# 
  1232  071B                     	;# 
  1233  071C                     	;# 
  1234  071D                     	;# 
  1235  071E                     	;# 
  1236  0796                     	;# 
  1237  0797                     	;# 
  1238  0798                     	;# 
  1239  0799                     	;# 
  1240  079A                     	;# 
  1241  079B                     	;# 
  1242  079C                     	;# 
  1243  079D                     	;# 
  1244  080C                     	;# 
  1245  080D                     	;# 
  1246  080E                     	;# 
  1247  080F                     	;# 
  1248  0810                     	;# 
  1249  0811                     	;# 
  1250  0812                     	;# 
  1251  0813                     	;# 
  1252  0814                     	;# 
  1253  081A                     	;# 
  1254  081A                     	;# 
  1255  081B                     	;# 
  1256  081C                     	;# 
  1257  081C                     	;# 
  1258  081D                     	;# 
  1259  081E                     	;# 
  1260  081F                     	;# 
  1261  088C                     	;# 
  1262  088D                     	;# 
  1263  088E                     	;# 
  1264  088F                     	;# 
  1265  0890                     	;# 
  1266  0891                     	;# 
  1267  0892                     	;# 
  1268  0893                     	;# 
  1269  0895                     	;# 
  1270  0896                     	;# 
  1271  0897                     	;# 
  1272  0898                     	;# 
  1273  0899                     	;# 
  1274  089A                     	;# 
  1275  089B                     	;# 
  1276  090C                     	;# 
  1277  090E                     	;# 
  1278  090F                     	;# 
  1279  091F                     	;# 
  1280  098F                     	;# 
  1281  098F                     	;# 
  1282  0990                     	;# 
  1283  0991                     	;# 
  1284  0992                     	;# 
  1285  0993                     	;# 
  1286  0994                     	;# 
  1287  0995                     	;# 
  1288  0996                     	;# 
  1289  0997                     	;# 
  1290  1E0F                     	;# 
  1291  1E10                     	;# 
  1292  1E11                     	;# 
  1293  1E12                     	;# 
  1294  1E13                     	;# 
  1295  1E14                     	;# 
  1296  1E15                     	;# 
  1297  1E16                     	;# 
  1298  1E17                     	;# 
  1299  1E18                     	;# 
  1300  1E19                     	;# 
  1301  1E1A                     	;# 
  1302  1E1B                     	;# 
  1303  1E1C                     	;# 
  1304  1E1D                     	;# 
  1305  1E1E                     	;# 
  1306  1E1F                     	;# 
  1307  1E20                     	;# 
  1308  1E21                     	;# 
  1309  1E22                     	;# 
  1310  1E23                     	;# 
  1311  1E24                     	;# 
  1312  1E25                     	;# 
  1313  1E26                     	;# 
  1314  1E27                     	;# 
  1315  1E28                     	;# 
  1316  1E29                     	;# 
  1317  1E2A                     	;# 
  1318  1E2B                     	;# 
  1319  1E2C                     	;# 
  1320  1E2D                     	;# 
  1321  1E2E                     	;# 
  1322  1E2F                     	;# 
  1323  1E30                     	;# 
  1324  1E31                     	;# 
  1325  1E32                     	;# 
  1326  1E33                     	;# 
  1327  1E34                     	;# 
  1328  1E35                     	;# 
  1329  1E36                     	;# 
  1330  1E37                     	;# 
  1331  1E8F                     	;# 
  1332  1E90                     	;# 
  1333  1E91                     	;# 
  1334  1E92                     	;# 
  1335  1E93                     	;# 
  1336  1E94                     	;# 
  1337  1E95                     	;# 
  1338  1E96                     	;# 
  1339  1E97                     	;# 
  1340  1E9C                     	;# 
  1341  1E9D                     	;# 
  1342  1E9E                     	;# 
  1343  1EA1                     	;# 
  1344  1EA2                     	;# 
  1345  1EA3                     	;# 
  1346  1EA4                     	;# 
  1347  1EA9                     	;# 
  1348  1EAA                     	;# 
  1349  1EB1                     	;# 
  1350  1EB2                     	;# 
  1351  1EB8                     	;# 
  1352  1EB9                     	;# 
  1353  1EBA                     	;# 
  1354  1EBB                     	;# 
  1355  1EBC                     	;# 
  1356  1EBD                     	;# 
  1357  1EBE                     	;# 
  1358  1EC3                     	;# 
  1359  1EC5                     	;# 
  1360  1EC6                     	;# 
  1361  1EC7                     	;# 
  1362  1EC8                     	;# 
  1363  1EC9                     	;# 
  1364  1ECA                     	;# 
  1365  1ECB                     	;# 
  1366  1ECB                     	;# 
  1367  1ECB                     	;# 
  1368  1ECC                     	;# 
  1369  1ECC                     	;# 
  1370  1ECC                     	;# 
  1371  1F10                     	;# 
  1372  1F11                     	;# 
  1373  1F12                     	;# 
  1374  1F14                     	;# 
  1375  1F15                     	;# 
  1376  1F1C                     	;# 
  1377  1F1D                     	;# 
  1378  1F1E                     	;# 
  1379  1F1F                     	;# 
  1380  1F20                     	;# 
  1381  1F21                     	;# 
  1382  1F22                     	;# 
  1383  1F23                     	;# 
  1384  1F24                     	;# 
  1385  1F25                     	;# 
  1386  1F26                     	;# 
  1387  1F27                     	;# 
  1388  1F38                     	;# 
  1389  1F39                     	;# 
  1390  1F3A                     	;# 
  1391  1F3B                     	;# 
  1392  1F3C                     	;# 
  1393  1F3D                     	;# 
  1394  1F3E                     	;# 
  1395  1F3F                     	;# 
  1396  1F43                     	;# 
  1397  1F44                     	;# 
  1398  1F45                     	;# 
  1399  1F46                     	;# 
  1400  1F47                     	;# 
  1401  1F48                     	;# 
  1402  1F49                     	;# 
  1403  1F4A                     	;# 
  1404  1F4E                     	;# 
  1405  1F4F                     	;# 
  1406  1F50                     	;# 
  1407  1F51                     	;# 
  1408  1F52                     	;# 
  1409  1F53                     	;# 
  1410  1F54                     	;# 
  1411  1F55                     	;# 
  1412  1FE4                     	;# 
  1413  1FE5                     	;# 
  1414  1FE6                     	;# 
  1415  1FE7                     	;# 
  1416  1FE8                     	;# 
  1417  1FE8                     	;# 
  1418  1FE9                     	;# 
  1419  1FEA                     	;# 
  1420  1FEB                     	;# 
  1421  1FED                     	;# 
  1422  1FEE                     	;# 
  1423  1FEF                     	;# 
  1424  0000                     	;# 
  1425  0001                     	;# 
  1426  0002                     	;# 
  1427  0003                     	;# 
  1428  0004                     	;# 
  1429  0005                     	;# 
  1430  0006                     	;# 
  1431  0007                     	;# 
  1432  0008                     	;# 
  1433  0009                     	;# 
  1434  000A                     	;# 
  1435  000B                     	;# 
  1436  000C                     	;# 
  1437  000D                     	;# 
  1438  000E                     	;# 
  1439  0012                     	;# 
  1440  0013                     	;# 
  1441  0014                     	;# 
  1442  0018                     	;# 
  1443  0019                     	;# 
  1444  001A                     	;# 
  1445  008C                     	;# 
  1446  008C                     	;# 
  1447  008D                     	;# 
  1448  008E                     	;# 
  1449  008E                     	;# 
  1450  008F                     	;# 
  1451  0090                     	;# 
  1452  0090                     	;# 
  1453  0091                     	;# 
  1454  0092                     	;# 
  1455  0092                     	;# 
  1456  0093                     	;# 
  1457  0094                     	;# 
  1458  0094                     	;# 
  1459  0095                     	;# 
  1460  0096                     	;# 
  1461  0096                     	;# 
  1462  0097                     	;# 
  1463  0098                     	;# 
  1464  0099                     	;# 
  1465  009A                     	;# 
  1466  009B                     	;# 
  1467  009B                     	;# 
  1468  009C                     	;# 
  1469  009D                     	;# 
  1470  009D                     	;# 
  1471  009E                     	;# 
  1472  009F                     	;# 
  1473  010C                     	;# 
  1474  010C                     	;# 
  1475  010D                     	;# 
  1476  010E                     	;# 
  1477  010F                     	;# 
  1478  010F                     	;# 
  1479  0110                     	;# 
  1480  0111                     	;# 
  1481  0112                     	;# 
  1482  0113                     	;# 
  1483  0114                     	;# 
  1484  0115                     	;# 
  1485  0116                     	;# 
  1486  0117                     	;# 
  1487  0118                     	;# 
  1488  0119                     	;# 
  1489  0119                     	;# 
  1490  0119                     	;# 
  1491  011A                     	;# 
  1492  011A                     	;# 
  1493  011A                     	;# 
  1494  011B                     	;# 
  1495  011B                     	;# 
  1496  011B                     	;# 
  1497  011B                     	;# 
  1498  011B                     	;# 
  1499  011C                     	;# 
  1500  011C                     	;# 
  1501  011C                     	;# 
  1502  011D                     	;# 
  1503  011D                     	;# 
  1504  011D                     	;# 
  1505  011E                     	;# 
  1506  011E                     	;# 
  1507  011E                     	;# 
  1508  011F                     	;# 
  1509  011F                     	;# 
  1510  011F                     	;# 
  1511  011F                     	;# 
  1512  011F                     	;# 
  1513  018C                     	;# 
  1514  018D                     	;# 
  1515  018E                     	;# 
  1516  018F                     	;# 
  1517  0190                     	;# 
  1518  0191                     	;# 
  1519  0192                     	;# 
  1520  0196                     	;# 
  1521  0197                     	;# 
  1522  0198                     	;# 
  1523  0199                     	;# 
  1524  019A                     	;# 
  1525  019B                     	;# 
  1526  019C                     	;# 
  1527  020C                     	;# 
  1528  020D                     	;# 
  1529  020E                     	;# 
  1530  020E                     	;# 
  1531  020F                     	;# 
  1532  020F                     	;# 
  1533  0210                     	;# 
  1534  0210                     	;# 
  1535  0211                     	;# 
  1536  0211                     	;# 
  1537  0212                     	;# 
  1538  0213                     	;# 
  1539  0214                     	;# 
  1540  0214                     	;# 
  1541  0215                     	;# 
  1542  0215                     	;# 
  1543  0216                     	;# 
  1544  0216                     	;# 
  1545  0217                     	;# 
  1546  0217                     	;# 
  1547  0218                     	;# 
  1548  0219                     	;# 
  1549  021A                     	;# 
  1550  021A                     	;# 
  1551  021B                     	;# 
  1552  021B                     	;# 
  1553  021C                     	;# 
  1554  021C                     	;# 
  1555  021D                     	;# 
  1556  021D                     	;# 
  1557  021E                     	;# 
  1558  021F                     	;# 
  1559  028C                     	;# 
  1560  028C                     	;# 
  1561  028D                     	;# 
  1562  028D                     	;# 
  1563  028E                     	;# 
  1564  028F                     	;# 
  1565  0290                     	;# 
  1566  0291                     	;# 
  1567  0292                     	;# 
  1568  0292                     	;# 
  1569  0293                     	;# 
  1570  0293                     	;# 
  1571  0294                     	;# 
  1572  0295                     	;# 
  1573  0296                     	;# 
  1574  0297                     	;# 
  1575  0298                     	;# 
  1576  0298                     	;# 
  1577  0299                     	;# 
  1578  0299                     	;# 
  1579  029A                     	;# 
  1580  029B                     	;# 
  1581  029C                     	;# 
  1582  029D                     	;# 
  1583  029F                     	;# 
  1584  030C                     	;# 
  1585  030C                     	;# 
  1586  030D                     	;# 
  1587  030E                     	;# 
  1588  030F                     	;# 
  1589  0310                     	;# 
  1590  0310                     	;# 
  1591  0311                     	;# 
  1592  0312                     	;# 
  1593  0313                     	;# 
  1594  0314                     	;# 
  1595  0314                     	;# 
  1596  0315                     	;# 
  1597  0316                     	;# 
  1598  0317                     	;# 
  1599  0318                     	;# 
  1600  0318                     	;# 
  1601  0319                     	;# 
  1602  031A                     	;# 
  1603  031B                     	;# 
  1604  038C                     	;# 
  1605  038C                     	;# 
  1606  038D                     	;# 
  1607  038E                     	;# 
  1608  0390                     	;# 
  1609  0390                     	;# 
  1610  0391                     	;# 
  1611  0392                     	;# 
  1612  048C                     	;# 
  1613  048C                     	;# 
  1614  048D                     	;# 
  1615  048E                     	;# 
  1616  048F                     	;# 
  1617  048F                     	;# 
  1618  0490                     	;# 
  1619  0491                     	;# 
  1620  0492                     	;# 
  1621  0492                     	;# 
  1622  0493                     	;# 
  1623  0494                     	;# 
  1624  0495                     	;# 
  1625  0495                     	;# 
  1626  0496                     	;# 
  1627  0497                     	;# 
  1628  0498                     	;# 
  1629  0499                     	;# 
  1630  049A                     	;# 
  1631  049B                     	;# 
  1632  049C                     	;# 
  1633  049D                     	;# 
  1634  058C                     	;# 
  1635  058C                     	;# 
  1636  058D                     	;# 
  1637  058E                     	;# 
  1638  058F                     	;# 
  1639  058F                     	;# 
  1640  0590                     	;# 
  1641  0591                     	;# 
  1642  0592                     	;# 
  1643  0593                     	;# 
  1644  059C                     	;# 
  1645  059C                     	;# 
  1646  059D                     	;# 
  1647  059D                     	;# 
  1648  059E                     	;# 
  1649  059F                     	;# 
  1650  060C                     	;# 
  1651  060C                     	;# 
  1652  060D                     	;# 
  1653  060D                     	;# 
  1654  060E                     	;# 
  1655  060F                     	;# 
  1656  0610                     	;# 
  1657  0611                     	;# 
  1658  0612                     	;# 
  1659  0613                     	;# 
  1660  0614                     	;# 
  1661  0616                     	;# 
  1662  0616                     	;# 
  1663  0617                     	;# 
  1664  0617                     	;# 
  1665  0618                     	;# 
  1666  0619                     	;# 
  1667  061A                     	;# 
  1668  061B                     	;# 
  1669  061C                     	;# 
  1670  061D                     	;# 
  1671  061E                     	;# 
  1672  070C                     	;# 
  1673  070D                     	;# 
  1674  070E                     	;# 
  1675  070F                     	;# 
  1676  0710                     	;# 
  1677  0711                     	;# 
  1678  0712                     	;# 
  1679  0713                     	;# 
  1680  0714                     	;# 
  1681  0716                     	;# 
  1682  0717                     	;# 
  1683  0718                     	;# 
  1684  0719                     	;# 
  1685  071A                     	;# 
  1686  071B                     	;# 
  1687  071C                     	;# 
  1688  071D                     	;# 
  1689  071E                     	;# 
  1690  0796                     	;# 
  1691  0797                     	;# 
  1692  0798                     	;# 
  1693  0799                     	;# 
  1694  079A                     	;# 
  1695  079B                     	;# 
  1696  079C                     	;# 
  1697  079D                     	;# 
  1698  080C                     	;# 
  1699  080D                     	;# 
  1700  080E                     	;# 
  1701  080F                     	;# 
  1702  0810                     	;# 
  1703  0811                     	;# 
  1704  0812                     	;# 
  1705  0813                     	;# 
  1706  0814                     	;# 
  1707  081A                     	;# 
  1708  081A                     	;# 
  1709  081B                     	;# 
  1710  081C                     	;# 
  1711  081C                     	;# 
  1712  081D                     	;# 
  1713  081E                     	;# 
  1714  081F                     	;# 
  1715  088C                     	;# 
  1716  088D                     	;# 
  1717  088E                     	;# 
  1718  088F                     	;# 
  1719  0890                     	;# 
  1720  0891                     	;# 
  1721  0892                     	;# 
  1722  0893                     	;# 
  1723  0895                     	;# 
  1724  0896                     	;# 
  1725  0897                     	;# 
  1726  0898                     	;# 
  1727  0899                     	;# 
  1728  089A                     	;# 
  1729  089B                     	;# 
  1730  090C                     	;# 
  1731  090E                     	;# 
  1732  090F                     	;# 
  1733  091F                     	;# 
  1734  098F                     	;# 
  1735  098F                     	;# 
  1736  0990                     	;# 
  1737  0991                     	;# 
  1738  0992                     	;# 
  1739  0993                     	;# 
  1740  0994                     	;# 
  1741  0995                     	;# 
  1742  0996                     	;# 
  1743  0997                     	;# 
  1744  1E0F                     	;# 
  1745  1E10                     	;# 
  1746  1E11                     	;# 
  1747  1E12                     	;# 
  1748  1E13                     	;# 
  1749  1E14                     	;# 
  1750  1E15                     	;# 
  1751  1E16                     	;# 
  1752  1E17                     	;# 
  1753  1E18                     	;# 
  1754  1E19                     	;# 
  1755  1E1A                     	;# 
  1756  1E1B                     	;# 
  1757  1E1C                     	;# 
  1758  1E1D                     	;# 
  1759  1E1E                     	;# 
  1760  1E1F                     	;# 
  1761  1E20                     	;# 
  1762  1E21                     	;# 
  1763  1E22                     	;# 
  1764  1E23                     	;# 
  1765  1E24                     	;# 
  1766  1E25                     	;# 
  1767  1E26                     	;# 
  1768  1E27                     	;# 
  1769  1E28                     	;# 
  1770  1E29                     	;# 
  1771  1E2A                     	;# 
  1772  1E2B                     	;# 
  1773  1E2C                     	;# 
  1774  1E2D                     	;# 
  1775  1E2E                     	;# 
  1776  1E2F                     	;# 
  1777  1E30                     	;# 
  1778  1E31                     	;# 
  1779  1E32                     	;# 
  1780  1E33                     	;# 
  1781  1E34                     	;# 
  1782  1E35                     	;# 
  1783  1E36                     	;# 
  1784  1E37                     	;# 
  1785  1E8F                     	;# 
  1786  1E90                     	;# 
  1787  1E91                     	;# 
  1788  1E92                     	;# 
  1789  1E93                     	;# 
  1790  1E94                     	;# 
  1791  1E95                     	;# 
  1792  1E96                     	;# 
  1793  1E97                     	;# 
  1794  1E9C                     	;# 
  1795  1E9D                     	;# 
  1796  1E9E                     	;# 
  1797  1EA1                     	;# 
  1798  1EA2                     	;# 
  1799  1EA3                     	;# 
  1800  1EA4                     	;# 
  1801  1EA9                     	;# 
  1802  1EAA                     	;# 
  1803  1EB1                     	;# 
  1804  1EB2                     	;# 
  1805  1EB8                     	;# 
  1806  1EB9                     	;# 
  1807  1EBA                     	;# 
  1808  1EBB                     	;# 
  1809  1EBC                     	;# 
  1810  1EBD                     	;# 
  1811  1EBE                     	;# 
  1812  1EC3                     	;# 
  1813  1EC5                     	;# 
  1814  1EC6                     	;# 
  1815  1EC7                     	;# 
  1816  1EC8                     	;# 
  1817  1EC9                     	;# 
  1818  1ECA                     	;# 
  1819  1ECB                     	;# 
  1820  1ECB                     	;# 
  1821  1ECB                     	;# 
  1822  1ECC                     	;# 
  1823  1ECC                     	;# 
  1824  1ECC                     	;# 
  1825  1F10                     	;# 
  1826  1F11                     	;# 
  1827  1F12                     	;# 
  1828  1F14                     	;# 
  1829  1F15                     	;# 
  1830  1F1C                     	;# 
  1831  1F1D                     	;# 
  1832  1F1E                     	;# 
  1833  1F1F                     	;# 
  1834  1F20                     	;# 
  1835  1F21                     	;# 
  1836  1F22                     	;# 
  1837  1F23                     	;# 
  1838  1F24                     	;# 
  1839  1F25                     	;# 
  1840  1F26                     	;# 
  1841  1F27                     	;# 
  1842  1F38                     	;# 
  1843  1F39                     	;# 
  1844  1F3A                     	;# 
  1845  1F3B                     	;# 
  1846  1F3C                     	;# 
  1847  1F3D                     	;# 
  1848  1F3E                     	;# 
  1849  1F3F                     	;# 
  1850  1F43                     	;# 
  1851  1F44                     	;# 
  1852  1F45                     	;# 
  1853  1F46                     	;# 
  1854  1F47                     	;# 
  1855  1F48                     	;# 
  1856  1F49                     	;# 
  1857  1F4A                     	;# 
  1858  1F4E                     	;# 
  1859  1F4F                     	;# 
  1860  1F50                     	;# 
  1861  1F51                     	;# 
  1862  1F52                     	;# 
  1863  1F53                     	;# 
  1864  1F54                     	;# 
  1865  1F55                     	;# 
  1866  1FE4                     	;# 
  1867  1FE5                     	;# 
  1868  1FE6                     	;# 
  1869  1FE7                     	;# 
  1870  1FE8                     	;# 
  1871  1FE8                     	;# 
  1872  1FE9                     	;# 
  1873  1FEA                     	;# 
  1874  1FEB                     	;# 
  1875  1FED                     	;# 
  1876  1FEE                     	;# 
  1877  1FEF                     	;# 
  1878  0000                     	;# 
  1879  0001                     	;# 
  1880  0002                     	;# 
  1881  0003                     	;# 
  1882  0004                     	;# 
  1883  0005                     	;# 
  1884  0006                     	;# 
  1885  0007                     	;# 
  1886  0008                     	;# 
  1887  0009                     	;# 
  1888  000A                     	;# 
  1889  000B                     	;# 
  1890  000C                     	;# 
  1891  000D                     	;# 
  1892  000E                     	;# 
  1893  0012                     	;# 
  1894  0013                     	;# 
  1895  0014                     	;# 
  1896  0018                     	;# 
  1897  0019                     	;# 
  1898  001A                     	;# 
  1899  008C                     	;# 
  1900  008C                     	;# 
  1901  008D                     	;# 
  1902  008E                     	;# 
  1903  008E                     	;# 
  1904  008F                     	;# 
  1905  0090                     	;# 
  1906  0090                     	;# 
  1907  0091                     	;# 
  1908  0092                     	;# 
  1909  0092                     	;# 
  1910  0093                     	;# 
  1911  0094                     	;# 
  1912  0094                     	;# 
  1913  0095                     	;# 
  1914  0096                     	;# 
  1915  0096                     	;# 
  1916  0097                     	;# 
  1917  0098                     	;# 
  1918  0099                     	;# 
  1919  009A                     	;# 
  1920  009B                     	;# 
  1921  009B                     	;# 
  1922  009C                     	;# 
  1923  009D                     	;# 
  1924  009D                     	;# 
  1925  009E                     	;# 
  1926  009F                     	;# 
  1927  010C                     	;# 
  1928  010C                     	;# 
  1929  010D                     	;# 
  1930  010E                     	;# 
  1931  010F                     	;# 
  1932  010F                     	;# 
  1933  0110                     	;# 
  1934  0111                     	;# 
  1935  0112                     	;# 
  1936  0113                     	;# 
  1937  0114                     	;# 
  1938  0115                     	;# 
  1939  0116                     	;# 
  1940  0117                     	;# 
  1941  0118                     	;# 
  1942  0119                     	;# 
  1943  0119                     	;# 
  1944  0119                     	;# 
  1945  011A                     	;# 
  1946  011A                     	;# 
  1947  011A                     	;# 
  1948  011B                     	;# 
  1949  011B                     	;# 
  1950  011B                     	;# 
  1951  011B                     	;# 
  1952  011B                     	;# 
  1953  011C                     	;# 
  1954  011C                     	;# 
  1955  011C                     	;# 
  1956  011D                     	;# 
  1957  011D                     	;# 
  1958  011D                     	;# 
  1959  011E                     	;# 
  1960  011E                     	;# 
  1961  011E                     	;# 
  1962  011F                     	;# 
  1963  011F                     	;# 
  1964  011F                     	;# 
  1965  011F                     	;# 
  1966  011F                     	;# 
  1967  018C                     	;# 
  1968  018D                     	;# 
  1969  018E                     	;# 
  1970  018F                     	;# 
  1971  0190                     	;# 
  1972  0191                     	;# 
  1973  0192                     	;# 
  1974  0196                     	;# 
  1975  0197                     	;# 
  1976  0198                     	;# 
  1977  0199                     	;# 
  1978  019A                     	;# 
  1979  019B                     	;# 
  1980  019C                     	;# 
  1981  020C                     	;# 
  1982  020D                     	;# 
  1983  020E                     	;# 
  1984  020E                     	;# 
  1985  020F                     	;# 
  1986  020F                     	;# 
  1987  0210                     	;# 
  1988  0210                     	;# 
  1989  0211                     	;# 
  1990  0211                     	;# 
  1991  0212                     	;# 
  1992  0213                     	;# 
  1993  0214                     	;# 
  1994  0214                     	;# 
  1995  0215                     	;# 
  1996  0215                     	;# 
  1997  0216                     	;# 
  1998  0216                     	;# 
  1999  0217                     	;# 
  2000  0217                     	;# 
  2001  0218                     	;# 
  2002  0219                     	;# 
  2003  021A                     	;# 
  2004  021A                     	;# 
  2005  021B                     	;# 
  2006  021B                     	;# 
  2007  021C                     	;# 
  2008  021C                     	;# 
  2009  021D                     	;# 
  2010  021D                     	;# 
  2011  021E                     	;# 
  2012  021F                     	;# 
  2013  028C                     	;# 
  2014  028C                     	;# 
  2015  028D                     	;# 
  2016  028D                     	;# 
  2017  028E                     	;# 
  2018  028F                     	;# 
  2019  0290                     	;# 
  2020  0291                     	;# 
  2021  0292                     	;# 
  2022  0292                     	;# 
  2023  0293                     	;# 
  2024  0293                     	;# 
  2025  0294                     	;# 
  2026  0295                     	;# 
  2027  0296                     	;# 
  2028  0297                     	;# 
  2029  0298                     	;# 
  2030  0298                     	;# 
  2031  0299                     	;# 
  2032  0299                     	;# 
  2033  029A                     	;# 
  2034  029B                     	;# 
  2035  029C                     	;# 
  2036  029D                     	;# 
  2037  029F                     	;# 
  2038  030C                     	;# 
  2039  030C                     	;# 
  2040  030D                     	;# 
  2041  030E                     	;# 
  2042  030F                     	;# 
  2043  0310                     	;# 
  2044  0310                     	;# 
  2045  0311                     	;# 
  2046  0312                     	;# 
  2047  0313                     	;# 
  2048  0314                     	;# 
  2049  0314                     	;# 
  2050  0315                     	;# 
  2051  0316                     	;# 
  2052  0317                     	;# 
  2053  0318                     	;# 
  2054  0318                     	;# 
  2055  0319                     	;# 
  2056  031A                     	;# 
  2057  031B                     	;# 
  2058  038C                     	;# 
  2059  038C                     	;# 
  2060  038D                     	;# 
  2061  038E                     	;# 
  2062  0390                     	;# 
  2063  0390                     	;# 
  2064  0391                     	;# 
  2065  0392                     	;# 
  2066  048C                     	;# 
  2067  048C                     	;# 
  2068  048D                     	;# 
  2069  048E                     	;# 
  2070  048F                     	;# 
  2071  048F                     	;# 
  2072  0490                     	;# 
  2073  0491                     	;# 
  2074  0492                     	;# 
  2075  0492                     	;# 
  2076  0493                     	;# 
  2077  0494                     	;# 
  2078  0495                     	;# 
  2079  0495                     	;# 
  2080  0496                     	;# 
  2081  0497                     	;# 
  2082  0498                     	;# 
  2083  0499                     	;# 
  2084  049A                     	;# 
  2085  049B                     	;# 
  2086  049C                     	;# 
  2087  049D                     	;# 
  2088  058C                     	;# 
  2089  058C                     	;# 
  2090  058D                     	;# 
  2091  058E                     	;# 
  2092  058F                     	;# 
  2093  058F                     	;# 
  2094  0590                     	;# 
  2095  0591                     	;# 
  2096  0592                     	;# 
  2097  0593                     	;# 
  2098  059C                     	;# 
  2099  059C                     	;# 
  2100  059D                     	;# 
  2101  059D                     	;# 
  2102  059E                     	;# 
  2103  059F                     	;# 
  2104  060C                     	;# 
  2105  060C                     	;# 
  2106  060D                     	;# 
  2107  060D                     	;# 
  2108  060E                     	;# 
  2109  060F                     	;# 
  2110  0610                     	;# 
  2111  0611                     	;# 
  2112  0612                     	;# 
  2113  0613                     	;# 
  2114  0614                     	;# 
  2115  0616                     	;# 
  2116  0616                     	;# 
  2117  0617                     	;# 
  2118  0617                     	;# 
  2119  0618                     	;# 
  2120  0619                     	;# 
  2121  061A                     	;# 
  2122  061B                     	;# 
  2123  061C                     	;# 
  2124  061D                     	;# 
  2125  061E                     	;# 
  2126  070C                     	;# 
  2127  070D                     	;# 
  2128  070E                     	;# 
  2129  070F                     	;# 
  2130  0710                     	;# 
  2131  0711                     	;# 
  2132  0712                     	;# 
  2133  0713                     	;# 
  2134  0714                     	;# 
  2135  0716                     	;# 
  2136  0717                     	;# 
  2137  0718                     	;# 
  2138  0719                     	;# 
  2139  071A                     	;# 
  2140  071B                     	;# 
  2141  071C                     	;# 
  2142  071D                     	;# 
  2143  071E                     	;# 
  2144  0796                     	;# 
  2145  0797                     	;# 
  2146  0798                     	;# 
  2147  0799                     	;# 
  2148  079A                     	;# 
  2149  079B                     	;# 
  2150  079C                     	;# 
  2151  079D                     	;# 
  2152  080C                     	;# 
  2153  080D                     	;# 
  2154  080E                     	;# 
  2155  080F                     	;# 
  2156  0810                     	;# 
  2157  0811                     	;# 
  2158  0812                     	;# 
  2159  0813                     	;# 
  2160  0814                     	;# 
  2161  081A                     	;# 
  2162  081A                     	;# 
  2163  081B                     	;# 
  2164  081C                     	;# 
  2165  081C                     	;# 
  2166  081D                     	;# 
  2167  081E                     	;# 
  2168  081F                     	;# 
  2169  088C                     	;# 
  2170  088D                     	;# 
  2171  088E                     	;# 
  2172  088F                     	;# 
  2173  0890                     	;# 
  2174  0891                     	;# 
  2175  0892                     	;# 
  2176  0893                     	;# 
  2177  0895                     	;# 
  2178  0896                     	;# 
  2179  0897                     	;# 
  2180  0898                     	;# 
  2181  0899                     	;# 
  2182  089A                     	;# 
  2183  089B                     	;# 
  2184  090C                     	;# 
  2185  090E                     	;# 
  2186  090F                     	;# 
  2187  091F                     	;# 
  2188  098F                     	;# 
  2189  098F                     	;# 
  2190  0990                     	;# 
  2191  0991                     	;# 
  2192  0992                     	;# 
  2193  0993                     	;# 
  2194  0994                     	;# 
  2195  0995                     	;# 
  2196  0996                     	;# 
  2197  0997                     	;# 
  2198  1E0F                     	;# 
  2199  1E10                     	;# 
  2200  1E11                     	;# 
  2201  1E12                     	;# 
  2202  1E13                     	;# 
  2203  1E14                     	;# 
  2204  1E15                     	;# 
  2205  1E16                     	;# 
  2206  1E17                     	;# 
  2207  1E18                     	;# 
  2208  1E19                     	;# 
  2209  1E1A                     	;# 
  2210  1E1B                     	;# 
  2211  1E1C                     	;# 
  2212  1E1D                     	;# 
  2213  1E1E                     	;# 
  2214  1E1F                     	;# 
  2215  1E20                     	;# 
  2216  1E21                     	;# 
  2217  1E22                     	;# 
  2218  1E23                     	;# 
  2219  1E24                     	;# 
  2220  1E25                     	;# 
  2221  1E26                     	;# 
  2222  1E27                     	;# 
  2223  1E28                     	;# 
  2224  1E29                     	;# 
  2225  1E2A                     	;# 
  2226  1E2B                     	;# 
  2227  1E2C                     	;# 
  2228  1E2D                     	;# 
  2229  1E2E                     	;# 
  2230  1E2F                     	;# 
  2231  1E30                     	;# 
  2232  1E31                     	;# 
  2233  1E32                     	;# 
  2234  1E33                     	;# 
  2235  1E34                     	;# 
  2236  1E35                     	;# 
  2237  1E36                     	;# 
  2238  1E37                     	;# 
  2239  1E8F                     	;# 
  2240  1E90                     	;# 
  2241  1E91                     	;# 
  2242  1E92                     	;# 
  2243  1E93                     	;# 
  2244  1E94                     	;# 
  2245  1E95                     	;# 
  2246  1E96                     	;# 
  2247  1E97                     	;# 
  2248  1E9C                     	;# 
  2249  1E9D                     	;# 
  2250  1E9E                     	;# 
  2251  1EA1                     	;# 
  2252  1EA2                     	;# 
  2253  1EA3                     	;# 
  2254  1EA4                     	;# 
  2255  1EA9                     	;# 
  2256  1EAA                     	;# 
  2257  1EB1                     	;# 
  2258  1EB2                     	;# 
  2259  1EB8                     	;# 
  2260  1EB9                     	;# 
  2261  1EBA                     	;# 
  2262  1EBB                     	;# 
  2263  1EBC                     	;# 
  2264  1EBD                     	;# 
  2265  1EBE                     	;# 
  2266  1EC3                     	;# 
  2267  1EC5                     	;# 
  2268  1EC6                     	;# 
  2269  1EC7                     	;# 
  2270  1EC8                     	;# 
  2271  1EC9                     	;# 
  2272  1ECA                     	;# 
  2273  1ECB                     	;# 
  2274  1ECB                     	;# 
  2275  1ECB                     	;# 
  2276  1ECC                     	;# 
  2277  1ECC                     	;# 
  2278  1ECC                     	;# 
  2279  1F10                     	;# 
  2280  1F11                     	;# 
  2281  1F12                     	;# 
  2282  1F14                     	;# 
  2283  1F15                     	;# 
  2284  1F1C                     	;# 
  2285  1F1D                     	;# 
  2286  1F1E                     	;# 
  2287  1F1F                     	;# 
  2288  1F20                     	;# 
  2289  1F21                     	;# 
  2290  1F22                     	;# 
  2291  1F23                     	;# 
  2292  1F24                     	;# 
  2293  1F25                     	;# 
  2294  1F26                     	;# 
  2295  1F27                     	;# 
  2296  1F38                     	;# 
  2297  1F39                     	;# 
  2298  1F3A                     	;# 
  2299  1F3B                     	;# 
  2300  1F3C                     	;# 
  2301  1F3D                     	;# 
  2302  1F3E                     	;# 
  2303  1F3F                     	;# 
  2304  1F43                     	;# 
  2305  1F44                     	;# 
  2306  1F45                     	;# 
  2307  1F46                     	;# 
  2308  1F47                     	;# 
  2309  1F48                     	;# 
  2310  1F49                     	;# 
  2311  1F4A                     	;# 
  2312  1F4E                     	;# 
  2313  1F4F                     	;# 
  2314  1F50                     	;# 
  2315  1F51                     	;# 
  2316  1F52                     	;# 
  2317  1F53                     	;# 
  2318  1F54                     	;# 
  2319  1F55                     	;# 
  2320  1FE4                     	;# 
  2321  1FE5                     	;# 
  2322  1FE6                     	;# 
  2323  1FE7                     	;# 
  2324  1FE8                     	;# 
  2325  1FE8                     	;# 
  2326  1FE9                     	;# 
  2327  1FEA                     	;# 
  2328  1FEB                     	;# 
  2329  1FED                     	;# 
  2330  1FEE                     	;# 
  2331  1FEF                     	;# 
  2332                           
  2333 ;; Function _EUSART1_DefaultFramingErrorHandler is unused but had its address taken
  2334  0000                     
  2335 ;; Function _EUSART1_DefaultOverrunErrorHandler is unused but had its address taken
  2336  0000                     
  2337 ;; Function _EUSART1_DefaultErrorHandler is unused but had its address taken
  2338  0000                     
  2339                           	psect	nvCOMMON
  2340  0077                     __pnvCOMMON:
  2341  0077                     _EUSART1_ErrorHandler:
  2342  0077                     	ds	2
  2343  0079                     _EUSART1_OverrunErrorHandler:
  2344  0079                     	ds	2
  2345  007B                     _EUSART1_FramingErrorHandler:
  2346  007B                     	ds	2
  2347  0018                     _LATAbits	set	24
  2348  001A                     _LATCbits	set	26
  2349  000E                     _PORTCbits	set	14
  2350  0014                     _TRISC	set	20
  2351  0013                     _TRISB	set	19
  2352  0012                     _TRISA	set	18
  2353  001A                     _LATC	set	26
  2354  0019                     _LATB	set	25
  2355  0018                     _LATA	set	24
  2356  011A                     _TX1REG	set	282
  2357  0119                     _RC1REG	set	281
  2358  011D                     _RC1STAbits	set	285
  2359  011E                     _TX1STAbits	set	286
  2360  011C                     _SP1BRGH	set	284
  2361  011B                     _SP1BRGL	set	283
  2362  011E                     _TX1STA	set	286
  2363  011D                     _RC1STA	set	285
  2364  011F                     _BAUD1CON	set	287
  2365  070F                     _PIR3bits	set	1807
  2366  079D                     _PMD7	set	1949
  2367  079C                     _PMD6	set	1948
  2368  079B                     _PMD5	set	1947
  2369  079A                     _PMD4	set	1946
  2370  0799                     _PMD3	set	1945
  2371  0798                     _PMD2	set	1944
  2372  0797                     _PMD1	set	1943
  2373  0796                     _PMD0	set	1942
  2374  0892                     _OSCTUNE	set	2194
  2375  0893                     _OSCFRQ	set	2195
  2376  0891                     _OSCEN	set	2193
  2377  088F                     _OSCCON3	set	2191
  2378  088D                     _OSCCON1	set	2189
  2379  1ECB                     _RX1DTPPS	set	7883
  2380  1F1F                     _RB7PPS	set	7967
  2381  1F52                     _INLVLC	set	8018
  2382  1F47                     _INLVLB	set	8007
  2383  1F3C                     _INLVLA	set	7996
  2384  1F51                     _SLRCONC	set	8017
  2385  1F46                     _SLRCONB	set	8006
  2386  1F3B                     _SLRCONA	set	7995
  2387  1F50                     _ODCONC	set	8016
  2388  1F45                     _ODCONB	set	8005
  2389  1F3A                     _ODCONA	set	7994
  2390  1F4F                     _WPUC	set	8015
  2391  1F39                     _WPUA	set	7993
  2392  1F44                     _WPUB	set	8004
  2393  1F38                     _ANSELA	set	7992
  2394  1F43                     _ANSELB	set	8003
  2395  1F4E                     _ANSELC	set	8014
  2396                           
  2397                           	psect	stringtext1
  2398  0800                     __pstringtext1:
  2399  0800                     STR_2:
  2400  0800  3453               	retlw	83	;'S'
  2401  0801  3468               	retlw	104	;'h'
  2402  0802  346F               	retlw	111	;'o'
  2403  0803  3472               	retlw	114	;'r'
  2404  0804  3474               	retlw	116	;'t'
  2405  0805  3420               	retlw	32	;' '
  2406  0806  3450               	retlw	80	;'P'
  2407  0807  3475               	retlw	117	;'u'
  2408  0808  3473               	retlw	115	;'s'
  2409  0809  3468               	retlw	104	;'h'
  2410  080A  340D               	retlw	13
  2411  080B  340A               	retlw	10
  2412  080C  3400               	retlw	0
  2413                           
  2414                           	psect	stringtext2
  2415  080D                     __pstringtext2:
  2416  080D                     STR_1:
  2417  080D  344C               	retlw	76	;'L'
  2418  080E  346F               	retlw	111	;'o'
  2419  080F  346E               	retlw	110	;'n'
  2420  0810  3467               	retlw	103	;'g'
  2421  0811  3420               	retlw	32	;' '
  2422  0812  3450               	retlw	80	;'P'
  2423  0813  3475               	retlw	117	;'u'
  2424  0814  3473               	retlw	115	;'s'
  2425  0815  3468               	retlw	104	;'h'
  2426  0816  340D               	retlw	13
  2427  0817  340A               	retlw	10
  2428  0818  3400               	retlw	0
  2429                           
  2430                           	psect	stringtext3
  2431  0819                     __pstringtext3:
  2432  0819                     STR_3:
  2433  0819  3443               	retlw	67	;'C'
  2434  081A  346C               	retlw	108	;'l'
  2435  081B  3469               	retlw	105	;'i'
  2436  081C  3463               	retlw	99	;'c'
  2437  081D  346B               	retlw	107	;'k'
  2438  081E  340D               	retlw	13
  2439  081F  340A               	retlw	10
  2440  0820  3400               	retlw	0
  2441                           
  2442                           	psect	stringtext4
  2443  0000                     __pstringtext4:
  2444                           
  2445                           	psect	cinit
  2446  07FC                     start_initialization:	
  2447                           ; #config settings
  2448                           
  2449  07FC                     __initialization:
  2450                           
  2451                           ; Clear objects allocated to COMMON
  2452  07FC  01FD               	clrf	__pbssCOMMON& (0+127)
  2453  07FD                     end_of_initialization:	
  2454                           ;End of C runtime variable initialization code
  2455                           
  2456  07FD                     __end_of__initialization:
  2457  07FD  0140               	movlb	0
  2458  07FE  3187  2F60         	ljmp	_main	;jump to C main() function
  2459                           
  2460                           	psect	bssCOMMON
  2461  007D                     __pbssCOMMON:
  2462  007D                     _eusart1RxLastError:
  2463  007D                     	ds	1
  2464                           
  2465                           	psect	cstackCOMMON
  2466  0070                     __pcstackCOMMON:
  2467  0070                     ?_PMD_Initialize:
  2468  0070                     ??_PMD_Initialize:	
  2469                           ; 1 bytes @ 0x0
  2470                           
  2471  0070                     ?_PIN_MANAGER_Initialize:	
  2472                           ; 1 bytes @ 0x0
  2473                           
  2474  0070                     ??_PIN_MANAGER_Initialize:	
  2475                           ; 1 bytes @ 0x0
  2476                           
  2477  0070                     ?_OSCILLATOR_Initialize:	
  2478                           ; 1 bytes @ 0x0
  2479                           
  2480  0070                     ??_OSCILLATOR_Initialize:	
  2481                           ; 1 bytes @ 0x0
  2482                           
  2483  0070                     ?_EUSART1_Initialize:	
  2484                           ; 1 bytes @ 0x0
  2485                           
  2486  0070                     ?_EUSART1_SetFramingErrorHandler:	
  2487                           ; 1 bytes @ 0x0
  2488                           
  2489  0070                     ?_EUSART1_SetOverrunErrorHandler:	
  2490                           ; 1 bytes @ 0x0
  2491                           
  2492  0070                     ?_EUSART1_SetErrorHandler:	
  2493                           ; 1 bytes @ 0x0
  2494                           
  2495  0070                     ?_SYSTEM_Initialize:	
  2496                           ; 1 bytes @ 0x0
  2497                           
  2498  0070                     ?_EUSART1_is_tx_ready:	
  2499                           ; 1 bytes @ 0x0
  2500                           
  2501  0070                     ??_EUSART1_is_tx_ready:	
  2502                           ; 1 bytes @ 0x0
  2503                           
  2504  0070                     ?_EUSART1_Write:	
  2505                           ; 1 bytes @ 0x0
  2506                           
  2507  0070                     ??_EUSART1_Write:	
  2508                           ; 1 bytes @ 0x0
  2509                           
  2510  0070                     ?_main:	
  2511                           ; 1 bytes @ 0x0
  2512                           
  2513  0070                     _EUSART1_is_tx_ready$218:	
  2514                           ; 1 bytes @ 0x0
  2515                           
  2516  0070                     EUSART1_Write@txData:	
  2517                           ; 1 bytes @ 0x0
  2518                           
  2519  0070                     EUSART1_SetFramingErrorHandler@interruptHandler:	
  2520                           ; 1 bytes @ 0x0
  2521                           
  2522  0070                     EUSART1_SetOverrunErrorHandler@interruptHandler:	
  2523                           ; 2 bytes @ 0x0
  2524                           
  2525  0070                     EUSART1_SetErrorHandler@interruptHandler:	
  2526                           ; 2 bytes @ 0x0
  2527                           
  2528                           
  2529                           ; 2 bytes @ 0x0
  2530  0070                     	ds	1
  2531  0071                     ?_UART_SendString:
  2532  0071                     UART_SendString@str:	
  2533                           ; 1 bytes @ 0x1
  2534                           
  2535                           
  2536                           ; 2 bytes @ 0x1
  2537  0071                     	ds	1
  2538  0072                     ??_EUSART1_Initialize:
  2539  0072                     ??_EUSART1_SetFramingErrorHandler:	
  2540                           ; 1 bytes @ 0x2
  2541                           
  2542  0072                     ??_EUSART1_SetOverrunErrorHandler:	
  2543                           ; 1 bytes @ 0x2
  2544                           
  2545  0072                     ??_EUSART1_SetErrorHandler:	
  2546                           ; 1 bytes @ 0x2
  2547                           
  2548  0072                     ??_SYSTEM_Initialize:	
  2549                           ; 1 bytes @ 0x2
  2550                           
  2551                           
  2552                           ; 1 bytes @ 0x2
  2553  0072                     	ds	1
  2554  0073                     ??_UART_SendString:
  2555                           
  2556                           ; 1 bytes @ 0x3
  2557  0073                     	ds	1
  2558  0074                     ??_main:
  2559                           
  2560                           ; 1 bytes @ 0x4
  2561  0074                     	ds	1
  2562  0075                     main@pushedTime:
  2563                           
  2564                           ; 2 bytes @ 0x5
  2565  0075                     	ds	2
  2566                           
  2567                           	psect	maintext
  2568  0760                     __pmaintext:	
  2569 ;;
  2570 ;;Main: autosize = 0, tempsize = 1, incstack = 0, save=0
  2571 ;;
  2572 ;; *************** function _main *****************
  2573 ;; Defined at:
  2574 ;;		line 52 in file "main.c"
  2575 ;; Parameters:    Size  Location     Type
  2576 ;;		None
  2577 ;; Auto vars:     Size  Location     Type
  2578 ;;  pushedTime      2    5[COMMON] int 
  2579 ;; Return value:  Size  Location     Type
  2580 ;;                  1    wreg      void 
  2581 ;; Registers used:
  2582 ;;		wreg, fsr0l, fsr0h, status,2, status,0, pclath, cstack
  2583 ;; Tracked objects:
  2584 ;;		On entry : B3F/0
  2585 ;;		On exit  : 0/0
  2586 ;;		Unchanged: 0/0
  2587 ;; Data sizes:     COMMON   BANK0   BANK1   BANK2   BANK3   BANK4   BANK5   BANK6   BANK7   BANK8   BANK9  BANK10  BANK1
      +1  BANK12  BANK13  BANK14  BANK15  BANK16  BANK17  BANK18  BANK19  BANK20  BANK21  BANK22  BANK23  BANK24  BANK25
  2588 ;;      Params:         0       0       0       0       0       0       0       0       0       0       0       0       
      +0       0       0       0       0       0       0       0       0       0       0       0       0       0       0
  2589 ;;      Locals:         2       0       0       0       0       0       0       0       0       0       0       0       
      +0       0       0       0       0       0       0       0       0       0       0       0       0       0       0
  2590 ;;      Temps:          1       0       0       0       0       0       0       0       0       0       0       0       
      +0       0       0       0       0       0       0       0       0       0       0       0       0       0       0
  2591 ;;      Totals:         3       0       0       0       0       0       0       0       0       0       0       0       
      +0       0       0       0       0       0       0       0       0       0       0       0       0       0       0
  2592 ;;Total ram usage:        3 bytes
  2593 ;; Hardware stack levels required when called: 3
  2594 ;; This function calls:
  2595 ;;		_SYSTEM_Initialize
  2596 ;;		_UART_SendString
  2597 ;; This function is called by:
  2598 ;;		Startup code after reset
  2599 ;; This function uses a non-reentrant model
  2600 ;;
  2601                           
  2602                           
  2603                           ;psect for function _main
  2604  0760                     _main:
  2605  0760                     l1044:	
  2606                           ;incstack = 0
  2607                           ; Regs used in _main: [wreg-fsr0h+status,2+status,0+pclath+cstack]
  2608                           
  2609                           
  2610                           ;main.c: 53:     int pushedTime;;main.c: 55:     SYSTEM_Initialize();
  2611  0760  3186  26DB  3187   	fcall	_SYSTEM_Initialize
  2612  0763                     l1046:
  2613                           
  2614                           ;main.c: 75:         if (!PORTCbits.RC4) {
  2615  0763  0140               	movlb	0	; select bank0
  2616  0764  1A0E               	btfsc	14,4	;volatile
  2617  0765  2F67               	goto	u251
  2618  0766  2F68               	goto	u250
  2619  0767                     u251:
  2620  0767  2F7A               	goto	l1054
  2621  0768                     u250:
  2622  0768                     l1048:
  2623                           
  2624                           ;main.c: 76:             _delay((unsigned long)((10)*(32000000/4000.0)));
  2625  0768  3068               	movlw	104
  2626  0769  00F4               	movwf	??_main
  2627  076A  30E4               	movlw	228
  2628  076B                     u387:
  2629  076B  0B89               	decfsz	9,f
  2630  076C  2F6B               	goto	u387
  2631  076D  0BF4               	decfsz	??_main,f
  2632  076E  2F6B               	goto	u387
  2633  076F  3200               	nop2
  2634  0770                     l1050:
  2635                           
  2636                           ;main.c: 77:             if (!PORTCbits.RC4) {
  2637  0770  0140               	movlb	0	; select bank0
  2638  0771  1A0E               	btfsc	14,4	;volatile
  2639  0772  2F74               	goto	u261
  2640  0773  2F75               	goto	u260
  2641  0774                     u261:
  2642  0774  2F63               	goto	l1046
  2643  0775                     u260:
  2644  0775                     l1052:
  2645                           
  2646                           ;main.c: 78:                 pushedTime++;
  2647  0775  3001               	movlw	1
  2648  0776  07F5               	addwf	main@pushedTime,f
  2649  0777  3000               	movlw	0
  2650  0778  3DF6               	addwfc	main@pushedTime+1,f
  2651  0779  2F63               	goto	l1046
  2652  077A                     l1054:
  2653                           
  2654                           ;main.c: 82:             _delay((unsigned long)((10)*(32000000/4000.0)));
  2655  077A  3068               	movlw	104
  2656  077B  00F4               	movwf	??_main
  2657  077C  30E4               	movlw	228
  2658  077D                     u397:
  2659  077D  0B89               	decfsz	9,f
  2660  077E  2F7D               	goto	u397
  2661  077F  0BF4               	decfsz	??_main,f
  2662  0780  2F7D               	goto	u397
  2663  0781  3200               	nop2
  2664  0782                     l1056:
  2665                           
  2666                           ;main.c: 83:             if (PORTCbits.RC4) {
  2667  0782  0140               	movlb	0	; select bank0
  2668  0783  1E0E               	btfss	14,4	;volatile
  2669  0784  2F86               	goto	u271
  2670  0785  2F87               	goto	u270
  2671  0786                     u271:
  2672  0786  2F63               	goto	l1046
  2673  0787                     u270:
  2674  0787                     l1058:
  2675                           
  2676                           ;main.c: 84:                 if (pushedTime < 5) {
  2677  0787  0876               	movf	main@pushedTime+1,w
  2678  0788  3A80               	xorlw	128
  2679  0789  00F4               	movwf	??_main
  2680  078A  3080               	movlw	128
  2681  078B  0274               	subwf	??_main,w
  2682  078C  1D03               	skipz
  2683  078D  2F90               	goto	u285
  2684  078E  3005               	movlw	5
  2685  078F  0275               	subwf	main@pushedTime,w
  2686  0790                     u285:
  2687  0790  1803               	skipnc
  2688  0791  2F93               	goto	u281
  2689  0792  2F94               	goto	u280
  2690  0793                     u281:
  2691  0793  2F95               	goto	l1062
  2692  0794                     u280:
  2693  0794  2F63               	goto	l1046
  2694  0795                     l1062:
  2695                           
  2696                           ;main.c: 87:                 if (pushedTime >= 500) {
  2697  0795  0876               	movf	main@pushedTime+1,w
  2698  0796  3A80               	xorlw	128
  2699  0797  00F4               	movwf	??_main
  2700  0798  3081               	movlw	129
  2701  0799  0274               	subwf	??_main,w
  2702  079A  1D03               	skipz
  2703  079B  2F9E               	goto	u295
  2704  079C  30F4               	movlw	244
  2705  079D  0275               	subwf	main@pushedTime,w
  2706  079E                     u295:
  2707  079E  1C03               	skipc
  2708  079F  2FA1               	goto	u291
  2709  07A0  2FA2               	goto	u290
  2710  07A1                     u291:
  2711  07A1  2FB6               	goto	l1068
  2712  07A2                     u290:
  2713  07A2                     l1064:
  2714  07A2  1003               	clrc
  2715  07A3  0140               	movlb	0	; select bank0
  2716  07A4  1E9A               	btfss	26,5	;volatile
  2717  07A5  1403               	setc
  2718  07A6  1803               	btfsc	3,0
  2719  07A7  2FA9               	goto	u301
  2720  07A8  2FAC               	goto	u300
  2721  07A9                     u301:
  2722  07A9  0140               	movlb	0	; select bank0
  2723  07AA  169A               	bsf	26,5	;volatile
  2724  07AB  2FAE               	goto	u314
  2725  07AC                     u300:
  2726  07AC  0140               	movlb	0	; select bank0
  2727  07AD  129A               	bcf	26,5	;volatile
  2728  07AE                     u314:
  2729  07AE                     l1066:
  2730                           
  2731                           ;main.c: 89:                     UART_SendString("Long Push\r\n");
  2732  07AE  300D               	movlw	low (STR_1| (0+32768))
  2733  07AF  00F1               	movwf	UART_SendString@str
  2734  07B0  3088               	movlw	high (STR_1| (0+32768))
  2735  07B1  00F2               	movwf	UART_SendString@str+1
  2736  07B2  3186  26F7  3187   	fcall	_UART_SendString
  2737                           
  2738                           ;main.c: 90:                 } else if (pushedTime >= 100) {
  2739  07B5  2FF7               	goto	l1080
  2740  07B6                     l1068:
  2741  07B6  0876               	movf	main@pushedTime+1,w
  2742  07B7  3A80               	xorlw	128
  2743  07B8  00F4               	movwf	??_main
  2744  07B9  3080               	movlw	128
  2745  07BA  0274               	subwf	??_main,w
  2746  07BB  1D03               	skipz
  2747  07BC  2FBF               	goto	u325
  2748  07BD  3064               	movlw	100
  2749  07BE  0275               	subwf	main@pushedTime,w
  2750  07BF                     u325:
  2751  07BF  1C03               	skipc
  2752  07C0  2FC2               	goto	u321
  2753  07C1  2FC3               	goto	u320
  2754  07C2                     u321:
  2755  07C2  2FD7               	goto	l1074
  2756  07C3                     u320:
  2757  07C3                     l1070:
  2758  07C3  1003               	clrc
  2759  07C4  0140               	movlb	0	; select bank0
  2760  07C5  1D18               	btfss	24,2	;volatile
  2761  07C6  1403               	setc
  2762  07C7  1803               	btfsc	3,0
  2763  07C8  2FCA               	goto	u331
  2764  07C9  2FCD               	goto	u330
  2765  07CA                     u331:
  2766  07CA  0140               	movlb	0	; select bank0
  2767  07CB  1518               	bsf	24,2	;volatile
  2768  07CC  2FCF               	goto	u344
  2769  07CD                     u330:
  2770  07CD  0140               	movlb	0	; select bank0
  2771  07CE  1118               	bcf	24,2	;volatile
  2772  07CF                     u344:
  2773  07CF                     l1072:
  2774                           
  2775                           ;main.c: 92:                     UART_SendString("Short Push\r\n");
  2776  07CF  3000               	movlw	low (STR_2| (0+32768))
  2777  07D0  00F1               	movwf	UART_SendString@str
  2778  07D1  3088               	movlw	high (STR_2| (0+32768))
  2779  07D2  00F2               	movwf	UART_SendString@str+1
  2780  07D3  3186  26F7  3187   	fcall	_UART_SendString
  2781                           
  2782                           ;main.c: 93:                 } else if (pushedTime >= 5) {
  2783  07D6  2FF7               	goto	l1080
  2784  07D7                     l1074:
  2785  07D7  0876               	movf	main@pushedTime+1,w
  2786  07D8  3A80               	xorlw	128
  2787  07D9  00F4               	movwf	??_main
  2788  07DA  3080               	movlw	128
  2789  07DB  0274               	subwf	??_main,w
  2790  07DC  1D03               	skipz
  2791  07DD  2FE0               	goto	u355
  2792  07DE  3005               	movlw	5
  2793  07DF  0275               	subwf	main@pushedTime,w
  2794  07E0                     u355:
  2795  07E0  1C03               	skipc
  2796  07E1  2FE3               	goto	u351
  2797  07E2  2FE4               	goto	u350
  2798  07E3                     u351:
  2799  07E3  2FF7               	goto	l1080
  2800  07E4                     u350:
  2801  07E4                     l1076:
  2802  07E4  1003               	clrc
  2803  07E5  0140               	movlb	0	; select bank0
  2804  07E6  1C98               	btfss	24,1	;volatile
  2805  07E7  1403               	setc
  2806  07E8  1803               	btfsc	3,0
  2807  07E9  2FEB               	goto	u361
  2808  07EA  2FEE               	goto	u360
  2809  07EB                     u361:
  2810  07EB  0140               	movlb	0	; select bank0
  2811  07EC  1498               	bsf	24,1	;volatile
  2812  07ED  2FF0               	goto	u374
  2813  07EE                     u360:
  2814  07EE  0140               	movlb	0	; select bank0
  2815  07EF  1098               	bcf	24,1	;volatile
  2816  07F0                     u374:
  2817  07F0                     l1078:
  2818                           
  2819                           ;main.c: 95:                     UART_SendString("Click\r\n");
  2820  07F0  3019               	movlw	low (STR_3| (0+32768))
  2821  07F1  00F1               	movwf	UART_SendString@str
  2822  07F2  3088               	movlw	high (STR_3| (0+32768))
  2823  07F3  00F2               	movwf	UART_SendString@str+1
  2824  07F4  3186  26F7  3187   	fcall	_UART_SendString
  2825  07F7                     l1080:
  2826                           
  2827                           ;main.c: 97:                 pushedTime = 0;
  2828  07F7  01F5               	clrf	main@pushedTime
  2829  07F8  01F6               	clrf	main@pushedTime+1
  2830  07F9  2F63               	goto	l1046
  2831  07FA  3180  2802         	ljmp	start
  2832  07FC                     __end_of_main:
  2833                           
  2834                           	psect	text1
  2835  06F7                     __ptext1:	
  2836 ;; *************** function _UART_SendString *****************
  2837 ;; Defined at:
  2838 ;;		line 107 in file "main.c"
  2839 ;; Parameters:    Size  Location     Type
  2840 ;;  str             2    1[COMMON] PTR unsigned char 
  2841 ;;		 -> STR_3(8), STR_2(13), STR_1(12), 
  2842 ;; Auto vars:     Size  Location     Type
  2843 ;;		None
  2844 ;; Return value:  Size  Location     Type
  2845 ;;                  1    wreg      void 
  2846 ;; Registers used:
  2847 ;;		wreg, fsr0l, fsr0h, status,2, status,0, pclath, cstack
  2848 ;; Tracked objects:
  2849 ;;		On entry : 0/0
  2850 ;;		On exit  : 0/0
  2851 ;;		Unchanged: 0/0
  2852 ;; Data sizes:     COMMON   BANK0   BANK1   BANK2   BANK3   BANK4   BANK5   BANK6   BANK7   BANK8   BANK9  BANK10  BANK1
      +1  BANK12  BANK13  BANK14  BANK15  BANK16  BANK17  BANK18  BANK19  BANK20  BANK21  BANK22  BANK23  BANK24  BANK25
  2853 ;;      Params:         2       0       0       0       0       0       0       0       0       0       0       0       
      +0       0       0       0       0       0       0       0       0       0       0       0       0       0       0
  2854 ;;      Locals:         0       0       0       0       0       0       0       0       0       0       0       0       
      +0       0       0       0       0       0       0       0       0       0       0       0       0       0       0
  2855 ;;      Temps:          1       0       0       0       0       0       0       0       0       0       0       0       
      +0       0       0       0       0       0       0       0       0       0       0       0       0       0       0
  2856 ;;      Totals:         3       0       0       0       0       0       0       0       0       0       0       0       
      +0       0       0       0       0       0       0       0       0       0       0       0       0       0       0
  2857 ;;Total ram usage:        3 bytes
  2858 ;; Hardware stack levels used: 1
  2859 ;; Hardware stack levels required when called: 1
  2860 ;; This function calls:
  2861 ;;		_EUSART1_Write
  2862 ;;		_EUSART1_is_tx_ready
  2863 ;; This function is called by:
  2864 ;;		_main
  2865 ;; This function uses a non-reentrant model
  2866 ;;
  2867                           
  2868                           
  2869                           ;psect for function _UART_SendString
  2870  06F7                     _UART_SendString:
  2871  06F7                     l1034:	
  2872                           ;incstack = 0
  2873                           ; Regs used in _UART_SendString: [wreg-fsr0h+status,2+status,0+pclath+cstack]
  2874                           
  2875                           
  2876                           ;main.c: 108:     while (*str) {
  2877  06F7  2F0C               	goto	l1042
  2878  06F8                     l1036:
  2879  06F8  3186  26E8  3186   	fcall	_EUSART1_is_tx_ready
  2880  06FB  3A00               	xorlw	0
  2881  06FC  1903               	skipnz
  2882  06FD  2EFF               	goto	u231
  2883  06FE  2F00               	goto	u230
  2884  06FF                     u231:
  2885  06FF  2EF8               	goto	l1036
  2886  0700                     u230:
  2887  0700                     l1038:
  2888                           
  2889                           ;main.c: 110:         EUSART1_Write(*str++);
  2890  0700  0871               	movf	UART_SendString@str,w
  2891  0701  0084               	movwf	4
  2892  0702  0872               	movf	UART_SendString@str+1,w
  2893  0703  0085               	movwf	5
  2894  0704  0800               	movf	0,w	;code access
  2895  0705  3186  26D1  3186   	fcall	_EUSART1_Write
  2896  0708                     l1040:
  2897  0708  3001               	movlw	1
  2898  0709  07F1               	addwf	UART_SendString@str,f
  2899  070A  3000               	movlw	0
  2900  070B  3DF2               	addwfc	UART_SendString@str+1,f
  2901  070C                     l1042:
  2902                           
  2903                           ;main.c: 108:     while (*str) {
  2904  070C  0871               	movf	UART_SendString@str,w
  2905  070D  0084               	movwf	4
  2906  070E  0872               	movf	UART_SendString@str+1,w
  2907  070F  0085               	movwf	5
  2908  0710  0012               	moviw fsr0++
  2909  0711  1D03               	btfss	3,2
  2910  0712  2F14               	goto	u241
  2911  0713  2F15               	goto	u240
  2912  0714                     u241:
  2913  0714  2EF8               	goto	l1036
  2914  0715                     u240:
  2915  0715                     l232:
  2916  0715  0008               	return
  2917  0716                     __end_of_UART_SendString:
  2918                           
  2919                           	psect	text2
  2920  06E8                     __ptext2:	
  2921 ;; *************** function _EUSART1_is_tx_ready *****************
  2922 ;; Defined at:
  2923 ;;		line 94 in file "mcc_generated_files/eusart1.c"
  2924 ;; Parameters:    Size  Location     Type
  2925 ;;		None
  2926 ;; Auto vars:     Size  Location     Type
  2927 ;;		None
  2928 ;; Return value:  Size  Location     Type
  2929 ;;                  1    wreg      _Bool 
  2930 ;; Registers used:
  2931 ;;		wreg, status,2
  2932 ;; Tracked objects:
  2933 ;;		On entry : 0/0
  2934 ;;		On exit  : 0/0
  2935 ;;		Unchanged: 0/0
  2936 ;; Data sizes:     COMMON   BANK0   BANK1   BANK2   BANK3   BANK4   BANK5   BANK6   BANK7   BANK8   BANK9  BANK10  BANK1
      +1  BANK12  BANK13  BANK14  BANK15  BANK16  BANK17  BANK18  BANK19  BANK20  BANK21  BANK22  BANK23  BANK24  BANK25
  2937 ;;      Params:         0       0       0       0       0       0       0       0       0       0       0       0       
      +0       0       0       0       0       0       0       0       0       0       0       0       0       0       0
  2938 ;;      Locals:         1       0       0       0       0       0       0       0       0       0       0       0       
      +0       0       0       0       0       0       0       0       0       0       0       0       0       0       0
  2939 ;;      Temps:          0       0       0       0       0       0       0       0       0       0       0       0       
      +0       0       0       0       0       0       0       0       0       0       0       0       0       0       0
  2940 ;;      Totals:         1       0       0       0       0       0       0       0       0       0       0       0       
      +0       0       0       0       0       0       0       0       0       0       0       0       0       0       0
  2941 ;;Total ram usage:        1 bytes
  2942 ;; Hardware stack levels used: 1
  2943 ;; This function calls:
  2944 ;;		Nothing
  2945 ;; This function is called by:
  2946 ;;		_UART_SendString
  2947 ;; This function uses a non-reentrant model
  2948 ;;
  2949                           
  2950                           
  2951                           ;psect for function _EUSART1_is_tx_ready
  2952  06E8                     _EUSART1_is_tx_ready:
  2953  06E8                     l1014:	
  2954                           ;incstack = 0
  2955                           ; Regs used in _EUSART1_is_tx_ready: [wreg+status,2]
  2956                           
  2957                           
  2958                           ;mcc_generated_files/eusart1.c: 96:     return (_Bool)(PIR3bits.TX1IF && TX1STAbits.TXEN
      +                          );
  2959  06E8  01F0               	clrf	_EUSART1_is_tx_ready$218
  2960  06E9                     l1016:
  2961  06E9  014E               	movlb	14	; select bank14
  2962  06EA  1E0F               	btfss	15,4	;volatile
  2963  06EB  2EED               	goto	u211
  2964  06EC  2EEE               	goto	u210
  2965  06ED                     u211:
  2966  06ED  2EF5               	goto	l1022
  2967  06EE                     u210:
  2968  06EE                     l1018:
  2969  06EE  0142               	movlb	2	; select bank2
  2970  06EF  1E9E               	btfss	30,5	;volatile
  2971  06F0  2EF2               	goto	u221
  2972  06F1  2EF3               	goto	u220
  2973  06F2                     u221:
  2974  06F2  2EF5               	goto	l1022
  2975  06F3                     u220:
  2976  06F3                     l1020:
  2977  06F3  01F0               	clrf	_EUSART1_is_tx_ready$218
  2978  06F4  0AF0               	incf	_EUSART1_is_tx_ready$218,f
  2979  06F5                     l1022:
  2980  06F5  0870               	movf	_EUSART1_is_tx_ready$218,w
  2981  06F6                     l143:
  2982  06F6  0008               	return
  2983  06F7                     __end_of_EUSART1_is_tx_ready:
  2984                           
  2985                           	psect	text3
  2986  06D1                     __ptext3:	
  2987 ;; *************** function _EUSART1_Write *****************
  2988 ;; Defined at:
  2989 ;;		line 132 in file "mcc_generated_files/eusart1.c"
  2990 ;; Parameters:    Size  Location     Type
  2991 ;;  txData          1    wreg     unsigned char 
  2992 ;; Auto vars:     Size  Location     Type
  2993 ;;  txData          1    0[COMMON] unsigned char 
  2994 ;; Return value:  Size  Location     Type
  2995 ;;                  1    wreg      void 
  2996 ;; Registers used:
  2997 ;;		wreg
  2998 ;; Tracked objects:
  2999 ;;		On entry : 0/0
  3000 ;;		On exit  : 0/0
  3001 ;;		Unchanged: 0/0
  3002 ;; Data sizes:     COMMON   BANK0   BANK1   BANK2   BANK3   BANK4   BANK5   BANK6   BANK7   BANK8   BANK9  BANK10  BANK1
      +1  BANK12  BANK13  BANK14  BANK15  BANK16  BANK17  BANK18  BANK19  BANK20  BANK21  BANK22  BANK23  BANK24  BANK25
  3003 ;;      Params:         0       0       0       0       0       0       0       0       0       0       0       0       
      +0       0       0       0       0       0       0       0       0       0       0       0       0       0       0
  3004 ;;      Locals:         1       0       0       0       0       0       0       0       0       0       0       0       
      +0       0       0       0       0       0       0       0       0       0       0       0       0       0       0
  3005 ;;      Temps:          0       0       0       0       0       0       0       0       0       0       0       0       
      +0       0       0       0       0       0       0       0       0       0       0       0       0       0       0
  3006 ;;      Totals:         1       0       0       0       0       0       0       0       0       0       0       0       
      +0       0       0       0       0       0       0       0       0       0       0       0       0       0       0
  3007 ;;Total ram usage:        1 bytes
  3008 ;; Hardware stack levels used: 1
  3009 ;; This function calls:
  3010 ;;		Nothing
  3011 ;; This function is called by:
  3012 ;;		_UART_SendString
  3013 ;; This function uses a non-reentrant model
  3014 ;;
  3015                           
  3016                           
  3017                           ;psect for function _EUSART1_Write
  3018  06D1                     _EUSART1_Write:
  3019                           
  3020                           ;incstack = 0
  3021                           ; Regs used in _EUSART1_Write: [wreg]
  3022                           ;EUSART1_Write@txData stored from wreg
  3023  06D1  00F0               	movwf	EUSART1_Write@txData
  3024  06D2                     l912:
  3025  06D2                     l162:	
  3026                           ;mcc_generated_files/eusart1.c: 135:     {;mcc_generated_files/eusart1.c: 136:     }
  3027                           
  3028                           
  3029                           ;mcc_generated_files/eusart1.c: 134:     while(0 == PIR3bits.TX1IF)
  3030  06D2  014E               	movlb	14	; select bank14
  3031  06D3  1E0F               	btfss	15,4	;volatile
  3032  06D4  2ED6               	goto	u31
  3033  06D5  2ED7               	goto	u30
  3034  06D6                     u31:
  3035  06D6  2ED2               	goto	l162
  3036  06D7                     u30:
  3037  06D7                     l914:
  3038                           
  3039                           ;mcc_generated_files/eusart1.c: 138:     TX1REG = txData;
  3040  06D7  0870               	movf	EUSART1_Write@txData,w
  3041  06D8  0142               	movlb	2	; select bank2
  3042  06D9  009A               	movwf	26	;volatile
  3043  06DA                     l165:
  3044  06DA  0008               	return
  3045  06DB                     __end_of_EUSART1_Write:
  3046                           
  3047                           	psect	text4
  3048  06DB                     __ptext4:	
  3049 ;; *************** function _SYSTEM_Initialize *****************
  3050 ;; Defined at:
  3051 ;;		line 50 in file "mcc_generated_files/mcc.c"
  3052 ;; Parameters:    Size  Location     Type
  3053 ;;		None
  3054 ;; Auto vars:     Size  Location     Type
  3055 ;;		None
  3056 ;; Return value:  Size  Location     Type
  3057 ;;                  1    wreg      void 
  3058 ;; Registers used:
  3059 ;;		wreg, status,2, status,0, pclath, cstack
  3060 ;; Tracked objects:
  3061 ;;		On entry : 0/0
  3062 ;;		On exit  : 0/0
  3063 ;;		Unchanged: 0/0
  3064 ;; Data sizes:     COMMON   BANK0   BANK1   BANK2   BANK3   BANK4   BANK5   BANK6   BANK7   BANK8   BANK9  BANK10  BANK1
      +1  BANK12  BANK13  BANK14  BANK15  BANK16  BANK17  BANK18  BANK19  BANK20  BANK21  BANK22  BANK23  BANK24  BANK25
  3065 ;;      Params:         0       0       0       0       0       0       0       0       0       0       0       0       
      +0       0       0       0       0       0       0       0       0       0       0       0       0       0       0
  3066 ;;      Locals:         0       0       0       0       0       0       0       0       0       0       0       0       
      +0       0       0       0       0       0       0       0       0       0       0       0       0       0       0
  3067 ;;      Temps:          0       0       0       0       0       0       0       0       0       0       0       0       
      +0       0       0       0       0       0       0       0       0       0       0       0       0       0       0
  3068 ;;      Totals:         0       0       0       0       0       0       0       0       0       0       0       0       
      +0       0       0       0       0       0       0       0       0       0       0       0       0       0       0
  3069 ;;Total ram usage:        0 bytes
  3070 ;; Hardware stack levels used: 1
  3071 ;; Hardware stack levels required when called: 2
  3072 ;; This function calls:
  3073 ;;		_EUSART1_Initialize
  3074 ;;		_OSCILLATOR_Initialize
  3075 ;;		_PIN_MANAGER_Initialize
  3076 ;;		_PMD_Initialize
  3077 ;; This function is called by:
  3078 ;;		_main
  3079 ;; This function uses a non-reentrant model
  3080 ;;
  3081                           
  3082                           
  3083                           ;psect for function _SYSTEM_Initialize
  3084  06DB                     _SYSTEM_Initialize:
  3085  06DB                     l1026:	
  3086                           ;incstack = 0
  3087                           ; Regs used in _SYSTEM_Initialize: [wreg+status,2+status,0+pclath+cstack]
  3088                           
  3089                           
  3090                           ;mcc_generated_files/mcc.c: 52:     PMD_Initialize();
  3091  06DB  3186  26C7  3186   	fcall	_PMD_Initialize
  3092  06DE                     l1028:
  3093                           
  3094                           ;mcc_generated_files/mcc.c: 53:     PIN_MANAGER_Initialize();
  3095  06DE  3187  2737  3186   	fcall	_PIN_MANAGER_Initialize
  3096  06E1                     l1030:
  3097                           
  3098                           ;mcc_generated_files/mcc.c: 54:     OSCILLATOR_Initialize();
  3099  06E1  3186  26BE  3186   	fcall	_OSCILLATOR_Initialize
  3100  06E4                     l1032:
  3101                           
  3102                           ;mcc_generated_files/mcc.c: 55:     EUSART1_Initialize();
  3103  06E4  3187  2716  3186   	fcall	_EUSART1_Initialize
  3104  06E7                     l37:
  3105  06E7  0008               	return
  3106  06E8                     __end_of_SYSTEM_Initialize:
  3107                           
  3108                           	psect	text5
  3109  06C7                     __ptext5:	
  3110 ;; *************** function _PMD_Initialize *****************
  3111 ;; Defined at:
  3112 ;;		line 72 in file "mcc_generated_files/mcc.c"
  3113 ;; Parameters:    Size  Location     Type
  3114 ;;		None
  3115 ;; Auto vars:     Size  Location     Type
  3116 ;;		None
  3117 ;; Return value:  Size  Location     Type
  3118 ;;                  1    wreg      void 
  3119 ;; Registers used:
  3120 ;;		status,2
  3121 ;; Tracked objects:
  3122 ;;		On entry : 0/0
  3123 ;;		On exit  : 0/0
  3124 ;;		Unchanged: 0/0
  3125 ;; Data sizes:     COMMON   BANK0   BANK1   BANK2   BANK3   BANK4   BANK5   BANK6   BANK7   BANK8   BANK9  BANK10  BANK1
      +1  BANK12  BANK13  BANK14  BANK15  BANK16  BANK17  BANK18  BANK19  BANK20  BANK21  BANK22  BANK23  BANK24  BANK25
  3126 ;;      Params:         0       0       0       0       0       0       0       0       0       0       0       0       
      +0       0       0       0       0       0       0       0       0       0       0       0       0       0       0
  3127 ;;      Locals:         0       0       0       0       0       0       0       0       0       0       0       0       
      +0       0       0       0       0       0       0       0       0       0       0       0       0       0       0
  3128 ;;      Temps:          0       0       0       0       0       0       0       0       0       0       0       0       
      +0       0       0       0       0       0       0       0       0       0       0       0       0       0       0
  3129 ;;      Totals:         0       0       0       0       0       0       0       0       0       0       0       0       
      +0       0       0       0       0       0       0       0       0       0       0       0       0       0       0
  3130 ;;Total ram usage:        0 bytes
  3131 ;; Hardware stack levels used: 1
  3132 ;; This function calls:
  3133 ;;		Nothing
  3134 ;; This function is called by:
  3135 ;;		_SYSTEM_Initialize
  3136 ;; This function uses a non-reentrant model
  3137 ;;
  3138                           
  3139                           
  3140                           ;psect for function _PMD_Initialize
  3141  06C7                     _PMD_Initialize:
  3142  06C7                     l848:	
  3143                           ;incstack = 0
  3144                           ; Regs used in _PMD_Initialize: [status,2]
  3145                           
  3146                           
  3147                           ;mcc_generated_files/mcc.c: 75:     PMD0 = 0x00;
  3148  06C7  014F               	movlb	15	; select bank15
  3149  06C8  0196               	clrf	22	;volatile
  3150                           
  3151                           ;mcc_generated_files/mcc.c: 77:     PMD1 = 0x00;
  3152  06C9  0197               	clrf	23	;volatile
  3153                           
  3154                           ;mcc_generated_files/mcc.c: 79:     PMD2 = 0x00;
  3155  06CA  0198               	clrf	24	;volatile
  3156                           
  3157                           ;mcc_generated_files/mcc.c: 81:     PMD3 = 0x00;
  3158  06CB  0199               	clrf	25	;volatile
  3159                           
  3160                           ;mcc_generated_files/mcc.c: 83:     PMD4 = 0x00;
  3161  06CC  019A               	clrf	26	;volatile
  3162                           
  3163                           ;mcc_generated_files/mcc.c: 85:     PMD5 = 0x00;
  3164  06CD  019B               	clrf	27	;volatile
  3165                           
  3166                           ;mcc_generated_files/mcc.c: 87:     PMD6 = 0x00;
  3167  06CE  019C               	clrf	28	;volatile
  3168                           
  3169                           ;mcc_generated_files/mcc.c: 89:     PMD7 = 0x00;
  3170  06CF  019D               	clrf	29	;volatile
  3171  06D0                     l43:
  3172  06D0  0008               	return
  3173  06D1                     __end_of_PMD_Initialize:
  3174                           
  3175                           	psect	text6
  3176  0737                     __ptext6:	
  3177 ;; *************** function _PIN_MANAGER_Initialize *****************
  3178 ;; Defined at:
  3179 ;;		line 55 in file "mcc_generated_files/pin_manager.c"
  3180 ;; Parameters:    Size  Location     Type
  3181 ;;		None
  3182 ;; Auto vars:     Size  Location     Type
  3183 ;;		None
  3184 ;; Return value:  Size  Location     Type
  3185 ;;                  1    wreg      void 
  3186 ;; Registers used:
  3187 ;;		wreg, status,2
  3188 ;; Tracked objects:
  3189 ;;		On entry : 0/0
  3190 ;;		On exit  : 0/0
  3191 ;;		Unchanged: 0/0
  3192 ;; Data sizes:     COMMON   BANK0   BANK1   BANK2   BANK3   BANK4   BANK5   BANK6   BANK7   BANK8   BANK9  BANK10  BANK1
      +1  BANK12  BANK13  BANK14  BANK15  BANK16  BANK17  BANK18  BANK19  BANK20  BANK21  BANK22  BANK23  BANK24  BANK25
  3193 ;;      Params:         0       0       0       0       0       0       0       0       0       0       0       0       
      +0       0       0       0       0       0       0       0       0       0       0       0       0       0       0
  3194 ;;      Locals:         0       0       0       0       0       0       0       0       0       0       0       0       
      +0       0       0       0       0       0       0       0       0       0       0       0       0       0       0
  3195 ;;      Temps:          0       0       0       0       0       0       0       0       0       0       0       0       
      +0       0       0       0       0       0       0       0       0       0       0       0       0       0       0
  3196 ;;      Totals:         0       0       0       0       0       0       0       0       0       0       0       0       
      +0       0       0       0       0       0       0       0       0       0       0       0       0       0       0
  3197 ;;Total ram usage:        0 bytes
  3198 ;; Hardware stack levels used: 1
  3199 ;; This function calls:
  3200 ;;		Nothing
  3201 ;; This function is called by:
  3202 ;;		_SYSTEM_Initialize
  3203 ;; This function uses a non-reentrant model
  3204 ;;
  3205                           
  3206                           
  3207                           ;psect for function _PIN_MANAGER_Initialize
  3208  0737                     _PIN_MANAGER_Initialize:
  3209  0737                     l850:	
  3210                           ;incstack = 0
  3211                           ; Regs used in _PIN_MANAGER_Initialize: [wreg+status,2]
  3212                           
  3213                           
  3214                           ;mcc_generated_files/pin_manager.c: 60:     LATA = 0x00;
  3215  0737  0140               	movlb	0	; select bank0
  3216  0738  0198               	clrf	24	;volatile
  3217                           
  3218                           ;mcc_generated_files/pin_manager.c: 61:     LATB = 0x00;
  3219  0739  0199               	clrf	25	;volatile
  3220                           
  3221                           ;mcc_generated_files/pin_manager.c: 62:     LATC = 0x00;
  3222  073A  019A               	clrf	26	;volatile
  3223  073B                     l852:
  3224                           
  3225                           ;mcc_generated_files/pin_manager.c: 67:     TRISA = 0x39;
  3226  073B  3039               	movlw	57
  3227  073C  0092               	movwf	18	;volatile
  3228  073D                     l854:
  3229                           
  3230                           ;mcc_generated_files/pin_manager.c: 68:     TRISB = 0x70;
  3231  073D  3070               	movlw	112
  3232  073E  0093               	movwf	19	;volatile
  3233  073F                     l856:
  3234                           
  3235                           ;mcc_generated_files/pin_manager.c: 69:     TRISC = 0xDF;
  3236  073F  30DF               	movlw	223
  3237  0740  0094               	movwf	20	;volatile
  3238  0741                     l858:
  3239                           
  3240                           ;mcc_generated_files/pin_manager.c: 74:     ANSELC = 0xEF;
  3241  0741  30EF               	movlw	239
  3242  0742  017E               	movlb	62	; select bank62
  3243  0743  00CE               	movwf	78	;volatile
  3244  0744                     l860:
  3245                           
  3246                           ;mcc_generated_files/pin_manager.c: 75:     ANSELB = 0xD0;
  3247  0744  30D0               	movlw	208
  3248  0745  00C3               	movwf	67	;volatile
  3249  0746                     l862:
  3250                           
  3251                           ;mcc_generated_files/pin_manager.c: 76:     ANSELA = 0x37;
  3252  0746  3037               	movlw	55
  3253  0747  00B8               	movwf	56	;volatile
  3254                           
  3255                           ;mcc_generated_files/pin_manager.c: 81:     WPUB = 0x00;
  3256  0748  01C4               	clrf	68	;volatile
  3257                           
  3258                           ;mcc_generated_files/pin_manager.c: 82:     WPUA = 0x00;
  3259  0749  01B9               	clrf	57	;volatile
  3260                           
  3261                           ;mcc_generated_files/pin_manager.c: 83:     WPUC = 0x00;
  3262  074A  01CF               	clrf	79	;volatile
  3263                           
  3264                           ;mcc_generated_files/pin_manager.c: 88:     ODCONA = 0x00;
  3265  074B  01BA               	clrf	58	;volatile
  3266                           
  3267                           ;mcc_generated_files/pin_manager.c: 89:     ODCONB = 0x00;
  3268  074C  01C5               	clrf	69	;volatile
  3269                           
  3270                           ;mcc_generated_files/pin_manager.c: 90:     ODCONC = 0x00;
  3271  074D  01D0               	clrf	80	;volatile
  3272  074E                     l864:
  3273                           
  3274                           ;mcc_generated_files/pin_manager.c: 95:     SLRCONA = 0x37;
  3275  074E  3037               	movlw	55
  3276  074F  00BB               	movwf	59	;volatile
  3277  0750                     l866:
  3278                           
  3279                           ;mcc_generated_files/pin_manager.c: 96:     SLRCONB = 0xF0;
  3280  0750  30F0               	movlw	240
  3281  0751  00C6               	movwf	70	;volatile
  3282  0752                     l868:
  3283                           
  3284                           ;mcc_generated_files/pin_manager.c: 97:     SLRCONC = 0xFF;
  3285  0752  30FF               	movlw	255
  3286  0753  00D1               	movwf	81	;volatile
  3287  0754                     l870:
  3288                           
  3289                           ;mcc_generated_files/pin_manager.c: 102:     INLVLA = 0x3F;
  3290  0754  303F               	movlw	63
  3291  0755  00BC               	movwf	60	;volatile
  3292  0756                     l872:
  3293                           
  3294                           ;mcc_generated_files/pin_manager.c: 103:     INLVLB = 0xF0;
  3295  0756  30F0               	movlw	240
  3296  0757  00C7               	movwf	71	;volatile
  3297  0758                     l874:
  3298                           
  3299                           ;mcc_generated_files/pin_manager.c: 104:     INLVLC = 0xFF;
  3300  0758  30FF               	movlw	255
  3301  0759  00D2               	movwf	82	;volatile
  3302  075A                     l876:
  3303                           
  3304                           ;mcc_generated_files/pin_manager.c: 113:     RB7PPS = 0x0F;
  3305  075A  300F               	movlw	15
  3306  075B  009F               	movwf	31	;volatile
  3307  075C                     l878:
  3308                           
  3309                           ;mcc_generated_files/pin_manager.c: 114:     RX1DTPPS = 0x0D;
  3310  075C  300D               	movlw	13
  3311  075D  017D               	movlb	61	; select bank61
  3312  075E  00CB               	movwf	75	;volatile
  3313  075F                     l92:
  3314  075F  0008               	return
  3315  0760                     __end_of_PIN_MANAGER_Initialize:
  3316                           
  3317                           	psect	text7
  3318  06BE                     __ptext7:	
  3319 ;; *************** function _OSCILLATOR_Initialize *****************
  3320 ;; Defined at:
  3321 ;;		line 58 in file "mcc_generated_files/mcc.c"
  3322 ;; Parameters:    Size  Location     Type
  3323 ;;		None
  3324 ;; Auto vars:     Size  Location     Type
  3325 ;;		None
  3326 ;; Return value:  Size  Location     Type
  3327 ;;                  1    wreg      void 
  3328 ;; Registers used:
  3329 ;;		wreg, status,2
  3330 ;; Tracked objects:
  3331 ;;		On entry : 0/0
  3332 ;;		On exit  : 0/0
  3333 ;;		Unchanged: 0/0
  3334 ;; Data sizes:     COMMON   BANK0   BANK1   BANK2   BANK3   BANK4   BANK5   BANK6   BANK7   BANK8   BANK9  BANK10  BANK1
      +1  BANK12  BANK13  BANK14  BANK15  BANK16  BANK17  BANK18  BANK19  BANK20  BANK21  BANK22  BANK23  BANK24  BANK25
  3335 ;;      Params:         0       0       0       0       0       0       0       0       0       0       0       0       
      +0       0       0       0       0       0       0       0       0       0       0       0       0       0       0
  3336 ;;      Locals:         0       0       0       0       0       0       0       0       0       0       0       0       
      +0       0       0       0       0       0       0       0       0       0       0       0       0       0       0
  3337 ;;      Temps:          0       0       0       0       0       0       0       0       0       0       0       0       
      +0       0       0       0       0       0       0       0       0       0       0       0       0       0       0
  3338 ;;      Totals:         0       0       0       0       0       0       0       0       0       0       0       0       
      +0       0       0       0       0       0       0       0       0       0       0       0       0       0       0
  3339 ;;Total ram usage:        0 bytes
  3340 ;; Hardware stack levels used: 1
  3341 ;; This function calls:
  3342 ;;		Nothing
  3343 ;; This function is called by:
  3344 ;;		_SYSTEM_Initialize
  3345 ;; This function uses a non-reentrant model
  3346 ;;
  3347                           
  3348                           
  3349                           ;psect for function _OSCILLATOR_Initialize
  3350  06BE                     _OSCILLATOR_Initialize:
  3351  06BE                     l880:	
  3352                           ;incstack = 0
  3353                           ; Regs used in _OSCILLATOR_Initialize: [wreg+status,2]
  3354                           
  3355                           
  3356                           ;mcc_generated_files/mcc.c: 61:     OSCCON1 = 0x60;
  3357  06BE  3060               	movlw	96
  3358  06BF  0151               	movlb	17	; select bank17
  3359  06C0  008D               	movwf	13	;volatile
  3360  06C1                     l882:
  3361                           
  3362                           ;mcc_generated_files/mcc.c: 63:     OSCCON3 = 0x00;
  3363  06C1  018F               	clrf	15	;volatile
  3364  06C2                     l884:
  3365                           
  3366                           ;mcc_generated_files/mcc.c: 65:     OSCEN = 0x00;
  3367  06C2  0191               	clrf	17	;volatile
  3368                           
  3369                           ;mcc_generated_files/mcc.c: 67:     OSCFRQ = 0x06;
  3370  06C3  3006               	movlw	6
  3371  06C4  0093               	movwf	19	;volatile
  3372  06C5                     l886:
  3373                           
  3374                           ;mcc_generated_files/mcc.c: 69:     OSCTUNE = 0x00;
  3375  06C5  0192               	clrf	18	;volatile
  3376  06C6                     l40:
  3377  06C6  0008               	return
  3378  06C7                     __end_of_OSCILLATOR_Initialize:
  3379                           
  3380                           	psect	text8
  3381  0716                     __ptext8:	
  3382 ;; *************** function _EUSART1_Initialize *****************
  3383 ;; Defined at:
  3384 ;;		line 66 in file "mcc_generated_files/eusart1.c"
  3385 ;; Parameters:    Size  Location     Type
  3386 ;;		None
  3387 ;; Auto vars:     Size  Location     Type
  3388 ;;		None
  3389 ;; Return value:  Size  Location     Type
  3390 ;;                  1    wreg      void 
  3391 ;; Registers used:
  3392 ;;		wreg, status,2, status,0, pclath, cstack
  3393 ;; Tracked objects:
  3394 ;;		On entry : 0/0
  3395 ;;		On exit  : 0/0
  3396 ;;		Unchanged: 0/0
  3397 ;; Data sizes:     COMMON   BANK0   BANK1   BANK2   BANK3   BANK4   BANK5   BANK6   BANK7   BANK8   BANK9  BANK10  BANK1
      +1  BANK12  BANK13  BANK14  BANK15  BANK16  BANK17  BANK18  BANK19  BANK20  BANK21  BANK22  BANK23  BANK24  BANK25
  3398 ;;      Params:         0       0       0       0       0       0       0       0       0       0       0       0       
      +0       0       0       0       0       0       0       0       0       0       0       0       0       0       0
  3399 ;;      Locals:         0       0       0       0       0       0       0       0       0       0       0       0       
      +0       0       0       0       0       0       0       0       0       0       0       0       0       0       0
  3400 ;;      Temps:          0       0       0       0       0       0       0       0       0       0       0       0       
      +0       0       0       0       0       0       0       0       0       0       0       0       0       0       0
  3401 ;;      Totals:         0       0       0       0       0       0       0       0       0       0       0       0       
      +0       0       0       0       0       0       0       0       0       0       0       0       0       0       0
  3402 ;;Total ram usage:        0 bytes
  3403 ;; Hardware stack levels used: 1
  3404 ;; Hardware stack levels required when called: 1
  3405 ;; This function calls:
  3406 ;;		_EUSART1_SetErrorHandler
  3407 ;;		_EUSART1_SetFramingErrorHandler
  3408 ;;		_EUSART1_SetOverrunErrorHandler
  3409 ;; This function is called by:
  3410 ;;		_SYSTEM_Initialize
  3411 ;; This function uses a non-reentrant model
  3412 ;;
  3413                           
  3414                           
  3415                           ;psect for function _EUSART1_Initialize
  3416  0716                     _EUSART1_Initialize:
  3417  0716                     l1002:	
  3418                           ;incstack = 0
  3419                           ; Regs used in _EUSART1_Initialize: [wreg+status,2+status,0+pclath+cstack]
  3420                           
  3421                           
  3422                           ;mcc_generated_files/eusart1.c: 71:     BAUD1CON = 0x08;
  3423  0716  3008               	movlw	8
  3424  0717  0142               	movlb	2	; select bank2
  3425  0718  009F               	movwf	31	;volatile
  3426                           
  3427                           ;mcc_generated_files/eusart1.c: 74:     RC1STA = 0x90;
  3428  0719  3090               	movlw	144
  3429  071A  009D               	movwf	29	;volatile
  3430                           
  3431                           ;mcc_generated_files/eusart1.c: 77:     TX1STA = 0x24;
  3432  071B  3024               	movlw	36
  3433  071C  009E               	movwf	30	;volatile
  3434                           
  3435                           ;mcc_generated_files/eusart1.c: 80:     SP1BRGL = 0x44;
  3436  071D  3044               	movlw	68
  3437  071E  009B               	movwf	27	;volatile
  3438  071F                     l1004:
  3439                           
  3440                           ;mcc_generated_files/eusart1.c: 83:     SP1BRGH = 0x00;
  3441  071F  019C               	clrf	28	;volatile
  3442  0720                     l1006:
  3443                           
  3444                           ;mcc_generated_files/eusart1.c: 86:     EUSART1_SetFramingErrorHandler(EUSART1_DefaultFr
      +                          amingErrorHandler);
  3445  0720  3000               	movlw	0
  3446  0721  00F0               	movwf	EUSART1_SetFramingErrorHandler@interruptHandler
  3447  0722  3000               	movlw	0
  3448  0723  00F1               	movwf	EUSART1_SetFramingErrorHandler@interruptHandler+1
  3449  0724  3186  26B4  3187   	fcall	_EUSART1_SetFramingErrorHandler
  3450  0727                     l1008:
  3451                           
  3452                           ;mcc_generated_files/eusart1.c: 87:     EUSART1_SetOverrunErrorHandler(EUSART1_DefaultOv
      +                          errunErrorHandler);
  3453  0727  3000               	movlw	0
  3454  0728  00F0               	movwf	EUSART1_SetOverrunErrorHandler@interruptHandler
  3455  0729  3000               	movlw	0
  3456  072A  00F1               	movwf	EUSART1_SetOverrunErrorHandler@interruptHandler+1
  3457  072B  3186  26B9  3187   	fcall	_EUSART1_SetOverrunErrorHandler
  3458  072E                     l1010:
  3459                           
  3460                           ;mcc_generated_files/eusart1.c: 88:     EUSART1_SetErrorHandler(EUSART1_DefaultErrorHand
      +                          ler);
  3461  072E  3000               	movlw	0
  3462  072F  00F0               	movwf	EUSART1_SetErrorHandler@interruptHandler
  3463  0730  3000               	movlw	0
  3464  0731  00F1               	movwf	EUSART1_SetErrorHandler@interruptHandler+1
  3465  0732  3186  26AF  3187   	fcall	_EUSART1_SetErrorHandler
  3466  0735                     l1012:
  3467                           
  3468                           ;mcc_generated_files/eusart1.c: 90:     eusart1RxLastError.status = 0;
  3469  0735  01FD               	clrf	_eusart1RxLastError	;volatile
  3470  0736                     l138:
  3471  0736  0008               	return
  3472  0737                     __end_of_EUSART1_Initialize:
  3473                           
  3474                           	psect	text9
  3475  06B9                     __ptext9:	
  3476 ;; *************** function _EUSART1_SetOverrunErrorHandler *****************
  3477 ;; Defined at:
  3478 ;;		line 161 in file "mcc_generated_files/eusart1.c"
  3479 ;; Parameters:    Size  Location     Type
  3480 ;;  interruptHan    2    0[COMMON] PTR FTN()void 
  3481 ;;		 -> EUSART1_DefaultOverrunErrorHandler(1), 
  3482 ;; Auto vars:     Size  Location     Type
  3483 ;;		None
  3484 ;; Return value:  Size  Location     Type
  3485 ;;                  1    wreg      void 
  3486 ;; Registers used:
  3487 ;;		wreg
  3488 ;; Tracked objects:
  3489 ;;		On entry : 0/0
  3490 ;;		On exit  : 0/0
  3491 ;;		Unchanged: 0/0
  3492 ;; Data sizes:     COMMON   BANK0   BANK1   BANK2   BANK3   BANK4   BANK5   BANK6   BANK7   BANK8   BANK9  BANK10  BANK1
      +1  BANK12  BANK13  BANK14  BANK15  BANK16  BANK17  BANK18  BANK19  BANK20  BANK21  BANK22  BANK23  BANK24  BANK25
  3493 ;;      Params:         2       0       0       0       0       0       0       0       0       0       0       0       
      +0       0       0       0       0       0       0       0       0       0       0       0       0       0       0
  3494 ;;      Locals:         0       0       0       0       0       0       0       0       0       0       0       0       
      +0       0       0       0       0       0       0       0       0       0       0       0       0       0       0
  3495 ;;      Temps:          0       0       0       0       0       0       0       0       0       0       0       0       
      +0       0       0       0       0       0       0       0       0       0       0       0       0       0       0
  3496 ;;      Totals:         2       0       0       0       0       0       0       0       0       0       0       0       
      +0       0       0       0       0       0       0       0       0       0       0       0       0       0       0
  3497 ;;Total ram usage:        2 bytes
  3498 ;; Hardware stack levels used: 1
  3499 ;; This function calls:
  3500 ;;		Nothing
  3501 ;; This function is called by:
  3502 ;;		_EUSART1_Initialize
  3503 ;; This function uses a non-reentrant model
  3504 ;;
  3505                           
  3506                           
  3507                           ;psect for function _EUSART1_SetOverrunErrorHandler
  3508  06B9                     _EUSART1_SetOverrunErrorHandler:
  3509  06B9                     l998:	
  3510                           ;incstack = 0
  3511                           ; Regs used in _EUSART1_SetOverrunErrorHandler: [wreg]
  3512                           
  3513                           
  3514                           ;mcc_generated_files/eusart1.c: 162:     EUSART1_OverrunErrorHandler = interruptHandler;
  3515  06B9  0871               	movf	EUSART1_SetOverrunErrorHandler@interruptHandler+1,w
  3516  06BA  00FA               	movwf	_EUSART1_OverrunErrorHandler+1
  3517  06BB  0870               	movf	EUSART1_SetOverrunErrorHandler@interruptHandler,w
  3518  06BC  00F9               	movwf	_EUSART1_OverrunErrorHandler
  3519  06BD                     l180:
  3520  06BD  0008               	return
  3521  06BE                     __end_of_EUSART1_SetOverrunErrorHandler:
  3522                           
  3523                           	psect	text10
  3524  06B4                     __ptext10:	
  3525 ;; *************** function _EUSART1_SetFramingErrorHandler *****************
  3526 ;; Defined at:
  3527 ;;		line 157 in file "mcc_generated_files/eusart1.c"
  3528 ;; Parameters:    Size  Location     Type
  3529 ;;  interruptHan    2    0[COMMON] PTR FTN()void 
  3530 ;;		 -> EUSART1_DefaultFramingErrorHandler(1), 
  3531 ;; Auto vars:     Size  Location     Type
  3532 ;;		None
  3533 ;; Return value:  Size  Location     Type
  3534 ;;                  1    wreg      void 
  3535 ;; Registers used:
  3536 ;;		wreg
  3537 ;; Tracked objects:
  3538 ;;		On entry : 0/0
  3539 ;;		On exit  : 0/0
  3540 ;;		Unchanged: 0/0
  3541 ;; Data sizes:     COMMON   BANK0   BANK1   BANK2   BANK3   BANK4   BANK5   BANK6   BANK7   BANK8   BANK9  BANK10  BANK1
      +1  BANK12  BANK13  BANK14  BANK15  BANK16  BANK17  BANK18  BANK19  BANK20  BANK21  BANK22  BANK23  BANK24  BANK25
  3542 ;;      Params:         2       0       0       0       0       0       0       0       0       0       0       0       
      +0       0       0       0       0       0       0       0       0       0       0       0       0       0       0
  3543 ;;      Locals:         0       0       0       0       0       0       0       0       0       0       0       0       
      +0       0       0       0       0       0       0       0       0       0       0       0       0       0       0
  3544 ;;      Temps:          0       0       0       0       0       0       0       0       0       0       0       0       
      +0       0       0       0       0       0       0       0       0       0       0       0       0       0       0
  3545 ;;      Totals:         2       0       0       0       0       0       0       0       0       0       0       0       
      +0       0       0       0       0       0       0       0       0       0       0       0       0       0       0
  3546 ;;Total ram usage:        2 bytes
  3547 ;; Hardware stack levels used: 1
  3548 ;; This function calls:
  3549 ;;		Nothing
  3550 ;; This function is called by:
  3551 ;;		_EUSART1_Initialize
  3552 ;; This function uses a non-reentrant model
  3553 ;;
  3554                           
  3555                           
  3556                           ;psect for function _EUSART1_SetFramingErrorHandler
  3557  06B4                     _EUSART1_SetFramingErrorHandler:
  3558  06B4                     l996:	
  3559                           ;incstack = 0
  3560                           ; Regs used in _EUSART1_SetFramingErrorHandler: [wreg]
  3561                           
  3562                           
  3563                           ;mcc_generated_files/eusart1.c: 158:     EUSART1_FramingErrorHandler = interruptHandler;
  3564  06B4  0871               	movf	EUSART1_SetFramingErrorHandler@interruptHandler+1,w
  3565  06B5  00FC               	movwf	_EUSART1_FramingErrorHandler+1
  3566  06B6  0870               	movf	EUSART1_SetFramingErrorHandler@interruptHandler,w
  3567  06B7  00FB               	movwf	_EUSART1_FramingErrorHandler
  3568  06B8                     l177:
  3569  06B8  0008               	return
  3570  06B9                     __end_of_EUSART1_SetFramingErrorHandler:
  3571                           
  3572                           	psect	text11
  3573  06AF                     __ptext11:	
  3574 ;; *************** function _EUSART1_SetErrorHandler *****************
  3575 ;; Defined at:
  3576 ;;		line 165 in file "mcc_generated_files/eusart1.c"
  3577 ;; Parameters:    Size  Location     Type
  3578 ;;  interruptHan    2    0[COMMON] PTR FTN()void 
  3579 ;;		 -> EUSART1_DefaultErrorHandler(1), 
  3580 ;; Auto vars:     Size  Location     Type
  3581 ;;		None
  3582 ;; Return value:  Size  Location     Type
  3583 ;;                  1    wreg      void 
  3584 ;; Registers used:
  3585 ;;		wreg
  3586 ;; Tracked objects:
  3587 ;;		On entry : 0/0
  3588 ;;		On exit  : 0/0
  3589 ;;		Unchanged: 0/0
  3590 ;; Data sizes:     COMMON   BANK0   BANK1   BANK2   BANK3   BANK4   BANK5   BANK6   BANK7   BANK8   BANK9  BANK10  BANK1
      +1  BANK12  BANK13  BANK14  BANK15  BANK16  BANK17  BANK18  BANK19  BANK20  BANK21  BANK22  BANK23  BANK24  BANK25
  3591 ;;      Params:         2       0       0       0       0       0       0       0       0       0       0       0       
      +0       0       0       0       0       0       0       0       0       0       0       0       0       0       0
  3592 ;;      Locals:         0       0       0       0       0       0       0       0       0       0       0       0       
      +0       0       0       0       0       0       0       0       0       0       0       0       0       0       0
  3593 ;;      Temps:          0       0       0       0       0       0       0       0       0       0       0       0       
      +0       0       0       0       0       0       0       0       0       0       0       0       0       0       0
  3594 ;;      Totals:         2       0       0       0       0       0       0       0       0       0       0       0       
      +0       0       0       0       0       0       0       0       0       0       0       0       0       0       0
  3595 ;;Total ram usage:        2 bytes
  3596 ;; Hardware stack levels used: 1
  3597 ;; This function calls:
  3598 ;;		Nothing
  3599 ;; This function is called by:
  3600 ;;		_EUSART1_Initialize
  3601 ;; This function uses a non-reentrant model
  3602 ;;
  3603                           
  3604                           
  3605                           ;psect for function _EUSART1_SetErrorHandler
  3606  06AF                     _EUSART1_SetErrorHandler:
  3607  06AF                     l1000:	
  3608                           ;incstack = 0
  3609                           ; Regs used in _EUSART1_SetErrorHandler: [wreg]
  3610                           
  3611                           
  3612                           ;mcc_generated_files/eusart1.c: 166:     EUSART1_ErrorHandler = interruptHandler;
  3613  06AF  0871               	movf	EUSART1_SetErrorHandler@interruptHandler+1,w
  3614  06B0  00F8               	movwf	_EUSART1_ErrorHandler+1
  3615  06B1  0870               	movf	EUSART1_SetErrorHandler@interruptHandler,w
  3616  06B2  00F7               	movwf	_EUSART1_ErrorHandler
  3617  06B3                     l183:
  3618  06B3  0008               	return
  3619  06B4                     __end_of_EUSART1_SetErrorHandler:
  3620  007E                     btemp	set	126	;btemp
  3621  007E                     wtemp0	set	126
  3622                           
  3623                           	psect	config
  3624                           
  3625                           ;Config register CONFIG1 @ 0x8007
  3626                           ;	External Oscillator mode selection bits
  3627                           ;	FEXTOSC = OFF, Oscillator not enabled
  3628                           ;	Power-up default value for COSC bits
  3629                           ;	RSTOSC = HFINT1, HFINTOSC (1MHz)
  3630                           ;	Clock Out Enable bit
  3631                           ;	CLKOUTEN = OFF, CLKOUT function is disabled; i/o or oscillator function on OSC2
  3632                           ;	Clock Switch Enable bit
  3633                           ;	CSWEN = ON, Writing to NOSC and NDIV is allowed
  3634                           ;	Fail-Safe Clock Monitor Enable bit
  3635                           ;	FCMEN = ON, FSCM timer enabled
  3636  8007                     	org	32775
  3637  8007  3FEC               	dw	16364
  3638                           
  3639                           ;Config register CONFIG2 @ 0x8008
  3640                           ;	Master Clear Enable bit
  3641                           ;	MCLRE = ON, MCLR pin is Master Clear function
  3642                           ;	Power-up Timer Enable bit
  3643                           ;	PWRTS = OFF, PWRT disabled
  3644                           ;	Low-Power BOR enable bit
  3645                           ;	LPBOREN = OFF, ULPBOR disabled
  3646                           ;	Brown-out reset enable bits
  3647                           ;	BOREN = ON, Brown-out Reset Enabled, SBOREN bit is ignored
  3648                           ;	Brown-out Reset Voltage Selection
  3649                           ;	BORV = LO, Brown-out Reset Voltage (VBOR) set to 2.45V
  3650                           ;	Zero-cross detect disable
  3651                           ;	ZCD = OFF, Zero-cross detect circuit is disabled at POR.
  3652                           ;	Peripheral Pin Select one-way control
  3653                           ;	PPS1WAY = ON, The PPSLOCK bit can be cleared and set only once in software
  3654                           ;	Stack Overflow/Underflow Reset Enable bit
  3655                           ;	STVREN = ON, Stack Overflow or Underflow will cause a reset
  3656  8008                     	org	32776
  3657  8008  3FFF               	dw	16383
  3658                           
  3659                           ;Config register CONFIG3 @ 0x8009
  3660                           ;	WDT Period Select bits
  3661                           ;	WDTCPS = WDTCPS_31, Divider ratio 1:65536; software control of WDTPS
  3662                           ;	WDT operating mode
  3663                           ;	WDTE = OFF, WDT Disabled, SWDTEN is ignored
  3664                           ;	WDT Window Select bits
  3665                           ;	WDTCWS = WDTCWS_7, window always open (100%); software control; keyed access not requi
      +                          red
  3666                           ;	WDT input clock selector
  3667                           ;	WDTCCS = SC, Software Control
  3668  8009                     	org	32777
  3669  8009  3F9F               	dw	16287
  3670                           
  3671                           ;Config register CONFIG4 @ 0x800A
  3672                           ;	Boot Block Size Selection bits
  3673                           ;	BBSIZE = BB512, 512 words boot block size
  3674                           ;	Boot Block Enable bit
  3675                           ;	BBEN = OFF, Boot Block disabled
  3676                           ;	SAF Enable bit
  3677                           ;	SAFEN = OFF, SAF disabled
  3678                           ;	Application Block Write Protection bit
  3679                           ;	WRTAPP = OFF, Application Block not write protected
  3680                           ;	Boot Block Write Protection bit
  3681                           ;	WRTB = OFF, Boot Block not write protected
  3682                           ;	Configuration Register Write Protection bit
  3683                           ;	WRTC = OFF, Configuration Register not write protected
  3684                           ;	Data EEPROM write protection bit
  3685                           ;	WRTD = OFF, Data EEPROM NOT write protected
  3686                           ;	Storage Area Flash Write Protection bit
  3687                           ;	WRTSAF = OFF, SAF not write protected
  3688                           ;	Low Voltage Programming Enable bit
  3689                           ;	LVP = ON, Low Voltage programming enabled. MCLR/Vpp pin function is MCLR.
  3690  800A                     	org	32778
  3691  800A  3FFF               	dw	16383
  3692                           
  3693                           ;Config register CONFIG5 @ 0x800B
  3694                           ;	UserNVM Program memory code protection bit
  3695                           ;	CP = OFF, UserNVM code protection disabled
  3696  800B                     	org	32779
  3697  800B  3FFF               	dw	16383

Data Sizes:
    Strings     33
    Constant    0
    Data        0
    BSS         1
    Persistent  38
    Stack       0

Auto Spaces:
    Space          Size  Autos    Used
    COMMON           14      7      14
    BANK0            80      0       0
    BANK1            80      0       0
    BANK2            80      0       0
    BANK3            80      0       0
    BANK4            80      0       0
    BANK5            80      0       0
    BANK6            80      0       0
    BANK7            80      0       0
    BANK8            80      0       0
    BANK9            80      0       0
    BANK10           80      0       0
    BANK11           80      0       0
    BANK12           80      0       0
    BANK13           80      0       0
    BANK14           80      0       0
    BANK15           80      0       0
    BANK16           80      0       0
    BANK17           80      0       0
    BANK18           80      0       0
    BANK19           80      0       0
    BANK20           80      0       0
    BANK21           80      0       0
    BANK22           80      0       0
    BANK23           80      0       0
    BANK24           80      0       0
    BANK25           32      0       0

Pointer List with Targets:

    UART_SendString@str	PTR unsigned char  size(2) Largest target is 13
		 -> STR_3(CODE[8]), STR_2(CODE[13]), STR_1(CODE[12]), 

    EUSART1_SetErrorHandler@interruptHandler	PTR FTN()void  size(2) Largest target is 1
		 -> EUSART1_DefaultErrorHandler(), 

    EUSART1_ErrorHandler	PTR FTN()void  size(2) Largest target is 1
		 -> Absolute function(), EUSART1_DefaultErrorHandler(), 

    EUSART1_SetOverrunErrorHandler@interruptHandler	PTR FTN()void  size(2) Largest target is 1
		 -> EUSART1_DefaultOverrunErrorHandler(), 

    EUSART1_OverrunErrorHandler	PTR FTN()void  size(2) Largest target is 1
		 -> Absolute function(), EUSART1_DefaultOverrunErrorHandler(), 

    EUSART1_SetFramingErrorHandler@interruptHandler	PTR FTN()void  size(2) Largest target is 1
		 -> EUSART1_DefaultFramingErrorHandler(), 

    EUSART1_FramingErrorHandler	PTR FTN()void  size(2) Largest target is 1
		 -> Absolute function(), EUSART1_DefaultFramingErrorHandler(), 


Critical Paths under _main in COMMON

    _main->_UART_SendString
    _UART_SendString->_EUSART1_Write
    _UART_SendString->_EUSART1_is_tx_ready
    _EUSART1_Initialize->_EUSART1_SetErrorHandler
    _EUSART1_Initialize->_EUSART1_SetFramingErrorHandler
    _EUSART1_Initialize->_EUSART1_SetOverrunErrorHandler

Critical Paths under _main in BANK0

    None.

Critical Paths under _main in BANK1

    None.

Critical Paths under _main in BANK2

    None.

Critical Paths under _main in BANK3

    None.

Critical Paths under _main in BANK4

    None.

Critical Paths under _main in BANK5

    None.

Critical Paths under _main in BANK6

    None.

Critical Paths under _main in BANK7

    None.

Critical Paths under _main in BANK8

    None.

Critical Paths under _main in BANK9

    None.

Critical Paths under _main in BANK10

    None.

Critical Paths under _main in BANK11

    None.

Critical Paths under _main in BANK12

    None.

Critical Paths under _main in BANK13

    None.

Critical Paths under _main in BANK14

    None.

Critical Paths under _main in BANK15

    None.

Critical Paths under _main in BANK16

    None.

Critical Paths under _main in BANK17

    None.

Critical Paths under _main in BANK18

    None.

Critical Paths under _main in BANK19

    None.

Critical Paths under _main in BANK20

    None.

Critical Paths under _main in BANK21

    None.

Critical Paths under _main in BANK22

    None.

Critical Paths under _main in BANK23

    None.

Critical Paths under _main in BANK24

    None.

Critical Paths under _main in BANK25

    None.

Call Graph Tables:

 ---------------------------------------------------------------------------------
 (Depth) Function   	        Calls       Base Space   Used Autos Params    Refs
 ---------------------------------------------------------------------------------
 (0) _main                                                 3     3      0     696
                                              4 COMMON     3     3      0
                  _SYSTEM_Initialize
                    _UART_SendString
 ---------------------------------------------------------------------------------
 (1) _UART_SendString                                      3     1      2     312
                                              1 COMMON     3     1      2
                      _EUSART1_Write
                _EUSART1_is_tx_ready
 ---------------------------------------------------------------------------------
 (2) _EUSART1_is_tx_ready                                  1     1      0      24
                                              0 COMMON     1     1      0
 ---------------------------------------------------------------------------------
 (2) _EUSART1_Write                                        1     1      0      15
                                              0 COMMON     1     1      0
 ---------------------------------------------------------------------------------
 (1) _SYSTEM_Initialize                                    0     0      0     294
                 _EUSART1_Initialize
              _OSCILLATOR_Initialize
             _PIN_MANAGER_Initialize
                     _PMD_Initialize
 ---------------------------------------------------------------------------------
 (2) _PMD_Initialize                                       0     0      0       0
 ---------------------------------------------------------------------------------
 (2) _PIN_MANAGER_Initialize                               0     0      0       0
 ---------------------------------------------------------------------------------
 (2) _OSCILLATOR_Initialize                                0     0      0       0
 ---------------------------------------------------------------------------------
 (2) _EUSART1_Initialize                                   0     0      0     294
            _EUSART1_SetErrorHandler
     _EUSART1_SetFramingErrorHandler
     _EUSART1_SetOverrunErrorHandler
 ---------------------------------------------------------------------------------
 (3) _EUSART1_SetOverrunErrorHandler                       2     0      2      98
                                              0 COMMON     2     0      2
 ---------------------------------------------------------------------------------
 (3) _EUSART1_SetFramingErrorHandler                       2     0      2      98
                                              0 COMMON     2     0      2
 ---------------------------------------------------------------------------------
 (3) _EUSART1_SetErrorHandler                              2     0      2      98
                                              0 COMMON     2     0      2
 ---------------------------------------------------------------------------------
 Estimated maximum stack depth 3
 ---------------------------------------------------------------------------------

 Call Graph Graphs:

 _main (ROOT)
   _SYSTEM_Initialize
     _EUSART1_Initialize
       _EUSART1_SetErrorHandler
       _EUSART1_SetFramingErrorHandler
       _EUSART1_SetOverrunErrorHandler
     _OSCILLATOR_Initialize
     _PIN_MANAGER_Initialize
     _PMD_Initialize
   _UART_SendString
     _EUSART1_Write
     _EUSART1_is_tx_ready

 Address spaces:
Name               Size   Autos  Total    Cost      Usage
BIGRAM             7F0      0       0       0        0.0%
EEDATA             100      0       0       0        0.0%
NULL                 0      0       0       0        0.0%
CODE                 0      0       0       0        0.0%
BITCOMMON            E      0       0       1        0.0%
BITSFR0              0      0       0       1        0.0%
SFR0                 0      0       0       1        0.0%
COMMON               E      7       E       2      100.0%
BITSFR1              0      0       0       2        0.0%
SFR1                 0      0       0       2        0.0%
BITSFR2              0      0       0       3        0.0%
SFR2                 0      0       0       3        0.0%
STACK                0      0       0       3        0.0%
BITBANK0            50      0       0       4        0.0%
BITSFR3              0      0       0       4        0.0%
SFR3                 0      0       0       4        0.0%
BANK0               50      0       0       5        0.0%
BITSFR4              0      0       0       5        0.0%
SFR4                 0      0       0       5        0.0%
BITSFR5              0      0       0       6        0.0%
SFR5                 0      0       0       6        0.0%
ABS                  0      0       E       6        0.0%
BITBANK1            50      0       0       7        0.0%
BITSFR6              0      0       0       7        0.0%
SFR6                 0      0       0       7        0.0%
BANK1               50      0       0       8        0.0%
BITSFR7              0      0       0       8        0.0%
SFR7                 0      0       0       8        0.0%
BITBANK2            50      0       0       9        0.0%
BITSFR8              0      0       0       9        0.0%
SFR8                 0      0       0       9        0.0%
BANK2               50      0       0      10        0.0%
BITSFR9              0      0       0      10        0.0%
SFR9                 0      0       0      10        0.0%
BITBANK3            50      0       0      11        0.0%
BITSFR10             0      0       0      11        0.0%
SFR10                0      0       0      11        0.0%
BANK3               50      0       0      12        0.0%
BITSFR11             0      0       0      12        0.0%
SFR11                0      0       0      12        0.0%
BITBANK4            50      0       0      13        0.0%
BITSFR12             0      0       0      13        0.0%
SFR12                0      0       0      13        0.0%
BANK4               50      0       0      14        0.0%
BITSFR13             0      0       0      14        0.0%
SFR13                0      0       0      14        0.0%
BITBANK5            50      0       0      15        0.0%
BITSFR14             0      0       0      15        0.0%
SFR14                0      0       0      15        0.0%
BANK5               50      0       0      16        0.0%
BITSFR15             0      0       0      16        0.0%
SFR15                0      0       0      16        0.0%
BITBANK6            50      0       0      17        0.0%
BITSFR16             0      0       0      17        0.0%
SFR16                0      0       0      17        0.0%
BANK6               50      0       0      18        0.0%
BITSFR17             0      0       0      18        0.0%
SFR17                0      0       0      18        0.0%
BITBANK7            50      0       0      19        0.0%
BITSFR18             0      0       0      19        0.0%
SFR18                0      0       0      19        0.0%
BANK7               50      0       0      20        0.0%
BITSFR19             0      0       0      20        0.0%
SFR19                0      0       0      20        0.0%
BITBANK8            50      0       0      21        0.0%
BITSFR20             0      0       0      21        0.0%
SFR20                0      0       0      21        0.0%
BANK8               50      0       0      22        0.0%
BITSFR21             0      0       0      22        0.0%
SFR21                0      0       0      22        0.0%
BITBANK9            50      0       0      23        0.0%
BITSFR22             0      0       0      23        0.0%
SFR22                0      0       0      23        0.0%
BANK9               50      0       0      24        0.0%
BITSFR23             0      0       0      24        0.0%
SFR23                0      0       0      24        0.0%
BITBANK10           50      0       0      25        0.0%
BITSFR24             0      0       0      25        0.0%
SFR24                0      0       0      25        0.0%
BANK10              50      0       0      26        0.0%
BITSFR25             0      0       0      26        0.0%
SFR25                0      0       0      26        0.0%
BITBANK11           50      0       0      27        0.0%
BITSFR26             0      0       0      27        0.0%
SFR26                0      0       0      27        0.0%
BANK11              50      0       0      28        0.0%
BITSFR27             0      0       0      28        0.0%
SFR27                0      0       0      28        0.0%
BITBANK12           50      0       0      29        0.0%
BITSFR28             0      0       0      29        0.0%
SFR28                0      0       0      29        0.0%
BANK12              50      0       0      30        0.0%
BITSFR29             0      0       0      30        0.0%
SFR29                0      0       0      30        0.0%
BITBANK13           50      0       0      31        0.0%
BITSFR30             0      0       0      31        0.0%
SFR30                0      0       0      31        0.0%
BANK13              50      0       0      32        0.0%
BITSFR31             0      0       0      32        0.0%
SFR31                0      0       0      32        0.0%
BITBANK14           50      0       0      33        0.0%
BITSFR32             0      0       0      33        0.0%
SFR32                0      0       0      33        0.0%
BANK14              50      0       0      34        0.0%
BITSFR33             0      0       0      34        0.0%
SFR33                0      0       0      34        0.0%
BITBANK15           50      0       0      35        0.0%
BITSFR34             0      0       0      35        0.0%
SFR34                0      0       0      35        0.0%
BANK15              50      0       0      36        0.0%
BITSFR35             0      0       0      36        0.0%
SFR35                0      0       0      36        0.0%
BITBANK16           50      0       0      37        0.0%
BITSFR36             0      0       0      37        0.0%
SFR36                0      0       0      37        0.0%
BANK16              50      0       0      38        0.0%
BITSFR37             0      0       0      38        0.0%
SFR37                0      0       0      38        0.0%
BITBANK17           50      0       0      39        0.0%
BITSFR38             0      0       0      39        0.0%
SFR38                0      0       0      39        0.0%
BANK17              50      0       0      40        0.0%
BITSFR39             0      0       0      40        0.0%
SFR39                0      0       0      40        0.0%
BITBANK18           50      0       0      41        0.0%
BITSFR40             0      0       0      41        0.0%
SFR40                0      0       0      41        0.0%
BANK18              50      0       0      42        0.0%
BITSFR41             0      0       0      42        0.0%
SFR41                0      0       0      42        0.0%
BITBANK19           50      0       0      43        0.0%
BITSFR42             0      0       0      43        0.0%
SFR42                0      0       0      43        0.0%
BANK19              50      0       0      44        0.0%
BITSFR43             0      0       0      44        0.0%
SFR43                0      0       0      44        0.0%
BITBANK20           50      0       0      45        0.0%
BITSFR44             0      0       0      45        0.0%
SFR44                0      0       0      45        0.0%
BANK20              50      0       0      46        0.0%
BITSFR45             0      0       0      46        0.0%
SFR45                0      0       0      46        0.0%
BITBANK21           50      0       0      47        0.0%
BITSFR46             0      0       0      47        0.0%
SFR46                0      0       0      47        0.0%
BANK21              50      0       0      48        0.0%
BITSFR47             0      0       0      48        0.0%
SFR47                0      0       0      48        0.0%
BITBANK22           50      0       0      49        0.0%
BITSFR48             0      0       0      49        0.0%
SFR48                0      0       0      49        0.0%
BANK22              50      0       0      50        0.0%
BITSFR49             0      0       0      50        0.0%
SFR49                0      0       0      50        0.0%
BITBANK23           50      0       0      51        0.0%
BITSFR50             0      0       0      51        0.0%
SFR50                0      0       0      51        0.0%
BANK23              50      0       0      52        0.0%
BITSFR51             0      0       0      52        0.0%
SFR51                0      0       0      52        0.0%
BITBANK24           50      0       0      53        0.0%
BITSFR52             0      0       0      53        0.0%
SFR52                0      0       0      53        0.0%
BANK24              50      0       0      54        0.0%
BITSFR53             0      0       0      54        0.0%
SFR53                0      0       0      54        0.0%
BITBANK25           20      0       0      55        0.0%
BITSFR54             0      0       0      55        0.0%
SFR54                0      0       0      55        0.0%
BANK25              20      0       0      56        0.0%
BITSFR55             0      0       0      56        0.0%
SFR55                0      0       0      56        0.0%
BITSFR56             0      0       0      57        0.0%
SFR56                0      0       0      57        0.0%
DATA                 0      0       E      57        0.0%
BITSFR57             0      0       0      58        0.0%
SFR57                0      0       0      58        0.0%
BITSFR58             0      0       0      59        0.0%
SFR58                0      0       0      59        0.0%
BITSFR59             0      0       0      60        0.0%
SFR59                0      0       0      60        0.0%
BITSFR60             0      0       0      61        0.0%
SFR60                0      0       0      61        0.0%
BITSFR61             0      0       0      62        0.0%
SFR61                0      0       0      62        0.0%
BITSFR62             0      0       0      63        0.0%
SFR62                0      0       0      63        0.0%
BITSFR63             0      0       0      64        0.0%
SFR63                0      0       0      64        0.0%


Microchip Technology PIC Macro Assembler V2.32 build 20210201212658 
Symbol Table                                                                                   Sat Mar 27 19:35:19 2021

                                            l40 06C6                                              l43 06D0  
                                            l37 06E7                                              l92 075F  
                                            u30 06D7                                              u31 06D6  
                                           l143 06F6                                             l232 0715  
                                           l138 0736                                             l162 06D2  
                                           l180 06BD                                             l165 06DA  
                                           l183 06B3                                             l177 06B8  
                                           l912 06D2                                             l850 0737  
                                           l914 06D7                                             l860 0744  
                                           l852 073B                                             l870 0754  
                                           l862 0746                                             l854 073D  
                                           l880 06BE                                             l872 0756  
                                           l864 074E                                             l856 073F  
                                           l848 06C7                                             l882 06C1  
                                           l874 0758                                             l866 0750  
                                           l858 0741                                             l884 06C2  
                                           l876 075A                                             l868 0752  
                                           l886 06C5                                             l878 075C  
                                           l996 06B4                                             l998 06B9  
                                           u210 06EE                                             u211 06ED  
                                           u220 06F3                                             u300 07AC  
                                           u221 06F2                                             u301 07A9  
                                           u230 0700                                             u231 06FF  
                                           u240 0715                                             u320 07C3  
                                           u241 0714                                             u321 07C2  
                                           u330 07CD                                             u314 07AE  
                                           u250 0768                                             u331 07CA  
                                           u251 0767                                             u260 0775  
                                           u325 07BF                                             u261 0774  
                                           u350 07E4                                             u270 0787  
                                           u351 07E3                                             u271 0786  
                                           u360 07EE                                             u344 07CF  
                                           u280 0794                                             u361 07EB  
                                           u281 0793                                             u290 07A2  
                                           u355 07E0                                             u291 07A1  
                                           u285 0790                                             u374 07F0  
                                           u295 079E                                             u387 076B  
                                           u397 077D                         __size_of_PMD_Initialize 000A  
                                           wreg 0009                                            l1000 06AF  
                                          l1010 072E                                            l1002 0716  
                                          l1012 0735                                            l1004 071F  
                                          l1020 06F3                                            l1006 0720  
                                          l1030 06E1                                            l1022 06F5  
                                          l1014 06E8                                            l1008 0727  
                                          l1032 06E4                                            l1016 06E9  
                                          l1040 0708                                            l1026 06DB  
                                          l1018 06EE                                            l1042 070C  
                                          l1034 06F7                                            l1050 0770  
                                          l1028 06DE                                            l1036 06F8  
                                          l1052 0775                                            l1044 0760  
                                          l1038 0700                                            l1070 07C3  
                                          l1062 0795                                            l1054 077A  
                                          l1046 0763                                            l1072 07CF  
                                          l1080 07F7                                            l1064 07A2  
                                          l1056 0782                                            l1048 0768  
                                          l1074 07D7                                            l1066 07AE  
                                          l1058 0787                                            l1076 07E4  
                                          l1068 07B6                                            l1078 07F0  
                                          STR_1 080D                                            STR_2 0800  
                                          STR_3 0819                                            _LATA 0018  
                                          _LATB 0019                                            _LATC 001A  
                                          _PMD0 0796                                            _PMD1 0797  
                                          _PMD2 0798                                            _PMD3 0799  
                                          _PMD4 079A                                            _PMD5 079B  
                                          _PMD6 079C                                            _PMD7 079D  
                                          _WPUA 1F39                                            _WPUB 1F44  
                                          _WPUC 1F4F                                   _EUSART1_Write 06D1  
                                          _main 0760                                            fsr0h 0005  
                                          indf0 0000                                            fsr0l 0004  
                                          btemp 007E                                            start 0002  
                __size_of_OSCILLATOR_Initialize 0009                   __end_of_OSCILLATOR_Initialize 06C7  
                                         ?_main 0070                                           _OSCEN 0891  
                                         _TRISA 0012                                           _TRISB 0013  
                                         _TRISC 0014                                  ?_EUSART1_Write 0070  
                              ?_UART_SendString 0071                                           status 0003  
                                         wtemp0 007E              _EUSART1_DefaultFramingErrorHandler 0000  
                               __initialization 07FC                      __end_of_EUSART1_Initialize 0737  
                                  __end_of_main 07FC                                          ??_main 0074  
                                        _ANSELA 1F38                                          _ANSELB 1F43  
                                        _ANSELC 1F4E                                          _RC1REG 0119  
                                        _RC1STA 011D                                          _RB7PPS 1F1F  
                                        _ODCONA 1F3A                                          _ODCONB 1F45  
                                        _ODCONC 1F50                                          _INLVLA 1F3C  
                                        _INLVLB 1F47                                          _INLVLC 1F52  
                                        _OSCFRQ 0893                    __size_of_EUSART1_is_tx_ready 000F  
                                        _TX1REG 011A                                          _TX1STA 011E  
                      ?_EUSART1_SetErrorHandler 0070                ??_EUSART1_SetOverrunErrorHandler 0072  
               ?_EUSART1_SetOverrunErrorHandler 0070                                  _PMD_Initialize 06C7  
                               ??_EUSART1_Write 0070                               _SYSTEM_Initialize 06DB  
                       __end_of__initialization 07FD                              ?_SYSTEM_Initialize 0070  
                                __pcstackCOMMON 0070                             ??_SYSTEM_Initialize 0072  
                        __end_of_PMD_Initialize 06D1                       __end_of_SYSTEM_Initialize 06E8  
                                    __pnvCOMMON 0077                 __end_of_EUSART1_SetErrorHandler 06B4  
                                    __pmaintext 0760                                 ?_PMD_Initialize 0070  
        __end_of_EUSART1_SetFramingErrorHandler 06B9         __size_of_EUSART1_SetFramingErrorHandler 0005  
                _EUSART1_SetFramingErrorHandler 06B4                                         _SP1BRGH 011C  
                                       _SP1BRGL 011B                                         _OSCCON1 088D  
                                       _OSCCON3 088F                                         _OSCTUNE 0892  
                                       _SLRCONA 1F3B                                         _SLRCONB 1F46  
                                       _SLRCONC 1F51                              UART_SendString@str 0071  
                           _EUSART1_is_tx_ready 06E8                                         __ptext1 06F7  
                                       __ptext2 06E8                                         __ptext3 06D1  
                                       __ptext4 06DB                                         __ptext5 06C7  
                                       __ptext6 0737                                         __ptext7 06BE  
                                       __ptext8 0716                                         __ptext9 06B9  
                         _OSCILLATOR_Initialize 06BE                              _EUSART1_Initialize 0716  
                      ??_PIN_MANAGER_Initialize 0070                      __size_of_SYSTEM_Initialize 000D  
                          end_of_initialization 07FD                             ?_EUSART1_Initialize 0070  
                          ?_EUSART1_is_tx_ready 0070                     _EUSART1_OverrunErrorHandler 0079  
                      __size_of_UART_SendString 001F                                  main@pushedTime 0075  
                          ??_EUSART1_Initialize 0072                                       _PORTCbits 000E  
              __size_of_EUSART1_SetErrorHandler 0005                             EUSART1_Write@txData 0070  
                         ??_EUSART1_is_tx_ready 0070                          ?_OSCILLATOR_Initialize 0070  
                           start_initialization 07FC                 __size_of_PIN_MANAGER_Initialize 0029  
                         __end_of_EUSART1_Write 06DB                                ??_PMD_Initialize 0070  
                             ??_UART_SendString 0073                                     __pbssCOMMON 007D  
                                     ___latbits 0003                ??_EUSART1_SetFramingErrorHandler 0072  
               ?_EUSART1_SetFramingErrorHandler 0070                          _PIN_MANAGER_Initialize 0737  
                       _EUSART1_is_tx_ready$218 0070                                        _BAUD1CON 011F  
            _EUSART1_DefaultOverrunErrorHandler 0000                            _EUSART1_ErrorHandler 0077  
                       _EUSART1_SetErrorHandler 06AF                                        _LATAbits 0018  
       EUSART1_SetErrorHandler@interruptHandler 0070                                        _LATCbits 001A  
                                      _PIR3bits 070F                                        _RX1DTPPS 1ECB  
                       ??_OSCILLATOR_Initialize 0070                     __size_of_EUSART1_Initialize 0021  
                     ??_EUSART1_SetErrorHandler 0072                     _EUSART1_DefaultErrorHandler 0000  
                   __end_of_EUSART1_is_tx_ready 06F7                                        __ptext10 06B4  
                                      __ptext11 06AF                                   __size_of_main 009C  
                               _UART_SendString 06F7                                      _RC1STAbits 011D  
EUSART1_SetOverrunErrorHandler@interruptHandler 0070                     _EUSART1_FramingErrorHandler 007B  
                       ?_PIN_MANAGER_Initialize 0070          __end_of_EUSART1_SetOverrunErrorHandler 06BE  
       __size_of_EUSART1_SetOverrunErrorHandler 0005                  _EUSART1_SetOverrunErrorHandler 06B9  
EUSART1_SetFramingErrorHandler@interruptHandler 0070                          __size_of_EUSART1_Write 000A  
                            _eusart1RxLastError 007D                                   __pstringtext1 0800  
                                 __pstringtext2 080D                                   __pstringtext3 0819  
                                 __pstringtext4 0000                                      _TX1STAbits 011E  
                       __end_of_UART_SendString 0716                  __end_of_PIN_MANAGER_Initialize 0760  
